
arraySort:     file format elf64-x86-64


Disassembly of section .init:

0000000000001000 <_init>:
    1000:	f3 0f 1e fa          	endbr64 
    1004:	48 83 ec 08          	sub    $0x8,%rsp
    1008:	48 8b 05 d9 3f 00 00 	mov    0x3fd9(%rip),%rax        # 4fe8 <__gmon_start__>
    100f:	48 85 c0             	test   %rax,%rax
    1012:	74 02                	je     1016 <_init+0x16>
    1014:	ff d0                	callq  *%rax
    1016:	48 83 c4 08          	add    $0x8,%rsp
    101a:	c3                   	retq   

Disassembly of section .plt:

0000000000001020 <.plt>:
    1020:	ff 35 4a 3f 00 00    	pushq  0x3f4a(%rip)        # 4f70 <_GLOBAL_OFFSET_TABLE_+0x8>
    1026:	f2 ff 25 4b 3f 00 00 	bnd jmpq *0x3f4b(%rip)        # 4f78 <_GLOBAL_OFFSET_TABLE_+0x10>
    102d:	0f 1f 00             	nopl   (%rax)
    1030:	f3 0f 1e fa          	endbr64 
    1034:	68 00 00 00 00       	pushq  $0x0
    1039:	f2 e9 e1 ff ff ff    	bnd jmpq 1020 <.plt>
    103f:	90                   	nop
    1040:	f3 0f 1e fa          	endbr64 
    1044:	68 01 00 00 00       	pushq  $0x1
    1049:	f2 e9 d1 ff ff ff    	bnd jmpq 1020 <.plt>
    104f:	90                   	nop
    1050:	f3 0f 1e fa          	endbr64 
    1054:	68 02 00 00 00       	pushq  $0x2
    1059:	f2 e9 c1 ff ff ff    	bnd jmpq 1020 <.plt>
    105f:	90                   	nop
    1060:	f3 0f 1e fa          	endbr64 
    1064:	68 03 00 00 00       	pushq  $0x3
    1069:	f2 e9 b1 ff ff ff    	bnd jmpq 1020 <.plt>
    106f:	90                   	nop
    1070:	f3 0f 1e fa          	endbr64 
    1074:	68 04 00 00 00       	pushq  $0x4
    1079:	f2 e9 a1 ff ff ff    	bnd jmpq 1020 <.plt>
    107f:	90                   	nop
    1080:	f3 0f 1e fa          	endbr64 
    1084:	68 05 00 00 00       	pushq  $0x5
    1089:	f2 e9 91 ff ff ff    	bnd jmpq 1020 <.plt>
    108f:	90                   	nop
    1090:	f3 0f 1e fa          	endbr64 
    1094:	68 06 00 00 00       	pushq  $0x6
    1099:	f2 e9 81 ff ff ff    	bnd jmpq 1020 <.plt>
    109f:	90                   	nop
    10a0:	f3 0f 1e fa          	endbr64 
    10a4:	68 07 00 00 00       	pushq  $0x7
    10a9:	f2 e9 71 ff ff ff    	bnd jmpq 1020 <.plt>
    10af:	90                   	nop
    10b0:	f3 0f 1e fa          	endbr64 
    10b4:	68 08 00 00 00       	pushq  $0x8
    10b9:	f2 e9 61 ff ff ff    	bnd jmpq 1020 <.plt>
    10bf:	90                   	nop

Disassembly of section .plt.got:

00000000000010c0 <__cxa_finalize@plt>:
    10c0:	f3 0f 1e fa          	endbr64 
    10c4:	f2 ff 25 fd 3e 00 00 	bnd jmpq *0x3efd(%rip)        # 4fc8 <__cxa_finalize@GLIBC_2.2.5>
    10cb:	0f 1f 44 00 00       	nopl   0x0(%rax,%rax,1)

Disassembly of section .plt.sec:

00000000000010d0 <rand@plt>:
    10d0:	f3 0f 1e fa          	endbr64 
    10d4:	f2 ff 25 a5 3e 00 00 	bnd jmpq *0x3ea5(%rip)        # 4f80 <rand@GLIBC_2.2.5>
    10db:	0f 1f 44 00 00       	nopl   0x0(%rax,%rax,1)

00000000000010e0 <_ZNSolsEx@plt>:
    10e0:	f3 0f 1e fa          	endbr64 
    10e4:	f2 ff 25 9d 3e 00 00 	bnd jmpq *0x3e9d(%rip)        # 4f88 <_ZNSolsEx@GLIBCXX_3.4>
    10eb:	0f 1f 44 00 00       	nopl   0x0(%rax,%rax,1)

00000000000010f0 <__cxa_atexit@plt>:
    10f0:	f3 0f 1e fa          	endbr64 
    10f4:	f2 ff 25 95 3e 00 00 	bnd jmpq *0x3e95(%rip)        # 4f90 <__cxa_atexit@GLIBC_2.2.5>
    10fb:	0f 1f 44 00 00       	nopl   0x0(%rax,%rax,1)

0000000000001100 <_ZStlsISt11char_traitsIcEERSt13basic_ostreamIcT_ES5_PKc@plt>:
    1100:	f3 0f 1e fa          	endbr64 
    1104:	f2 ff 25 8d 3e 00 00 	bnd jmpq *0x3e8d(%rip)        # 4f98 <_ZStlsISt11char_traitsIcEERSt13basic_ostreamIcT_ES5_PKc@GLIBCXX_3.4>
    110b:	0f 1f 44 00 00       	nopl   0x0(%rax,%rax,1)

0000000000001110 <_ZNSolsEPFRSoS_E@plt>:
    1110:	f3 0f 1e fa          	endbr64 
    1114:	f2 ff 25 85 3e 00 00 	bnd jmpq *0x3e85(%rip)        # 4fa0 <_ZNSolsEPFRSoS_E@GLIBCXX_3.4>
    111b:	0f 1f 44 00 00       	nopl   0x0(%rax,%rax,1)

0000000000001120 <__stack_chk_fail@plt>:
    1120:	f3 0f 1e fa          	endbr64 
    1124:	f2 ff 25 7d 3e 00 00 	bnd jmpq *0x3e7d(%rip)        # 4fa8 <__stack_chk_fail@GLIBC_2.4>
    112b:	0f 1f 44 00 00       	nopl   0x0(%rax,%rax,1)

0000000000001130 <_ZNSt8ios_base4InitC1Ev@plt>:
    1130:	f3 0f 1e fa          	endbr64 
    1134:	f2 ff 25 75 3e 00 00 	bnd jmpq *0x3e75(%rip)        # 4fb0 <_ZNSt8ios_base4InitC1Ev@GLIBCXX_3.4>
    113b:	0f 1f 44 00 00       	nopl   0x0(%rax,%rax,1)

0000000000001140 <atoi@plt>:
    1140:	f3 0f 1e fa          	endbr64 
    1144:	f2 ff 25 6d 3e 00 00 	bnd jmpq *0x3e6d(%rip)        # 4fb8 <atoi@GLIBC_2.2.5>
    114b:	0f 1f 44 00 00       	nopl   0x0(%rax,%rax,1)

0000000000001150 <memmove@plt>:
    1150:	f3 0f 1e fa          	endbr64 
    1154:	f2 ff 25 65 3e 00 00 	bnd jmpq *0x3e65(%rip)        # 4fc0 <memmove@GLIBC_2.2.5>
    115b:	0f 1f 44 00 00       	nopl   0x0(%rax,%rax,1)

Disassembly of section .text:

0000000000001160 <_start>:
    1160:	f3 0f 1e fa          	endbr64 
    1164:	31 ed                	xor    %ebp,%ebp
    1166:	49 89 d1             	mov    %rdx,%r9
    1169:	5e                   	pop    %rsi
    116a:	48 89 e2             	mov    %rsp,%rdx
    116d:	48 83 e4 f0          	and    $0xfffffffffffffff0,%rsp
    1171:	50                   	push   %rax
    1172:	54                   	push   %rsp
    1173:	4c 8d 05 06 12 00 00 	lea    0x1206(%rip),%r8        # 2380 <__libc_csu_fini>
    117a:	48 8d 0d 8f 11 00 00 	lea    0x118f(%rip),%rcx        # 2310 <__libc_csu_init>
    1181:	48 8d 3d c1 00 00 00 	lea    0xc1(%rip),%rdi        # 1249 <main>
    1188:	ff 15 52 3e 00 00    	callq  *0x3e52(%rip)        # 4fe0 <__libc_start_main@GLIBC_2.2.5>
    118e:	f4                   	hlt    
    118f:	90                   	nop

0000000000001190 <deregister_tm_clones>:
    1190:	48 8d 3d 79 3e 00 00 	lea    0x3e79(%rip),%rdi        # 5010 <__TMC_END__>
    1197:	48 8d 05 72 3e 00 00 	lea    0x3e72(%rip),%rax        # 5010 <__TMC_END__>
    119e:	48 39 f8             	cmp    %rdi,%rax
    11a1:	74 15                	je     11b8 <deregister_tm_clones+0x28>
    11a3:	48 8b 05 2e 3e 00 00 	mov    0x3e2e(%rip),%rax        # 4fd8 <_ITM_deregisterTMCloneTable>
    11aa:	48 85 c0             	test   %rax,%rax
    11ad:	74 09                	je     11b8 <deregister_tm_clones+0x28>
    11af:	ff e0                	jmpq   *%rax
    11b1:	0f 1f 80 00 00 00 00 	nopl   0x0(%rax)
    11b8:	c3                   	retq   
    11b9:	0f 1f 80 00 00 00 00 	nopl   0x0(%rax)

00000000000011c0 <register_tm_clones>:
    11c0:	48 8d 3d 49 3e 00 00 	lea    0x3e49(%rip),%rdi        # 5010 <__TMC_END__>
    11c7:	48 8d 35 42 3e 00 00 	lea    0x3e42(%rip),%rsi        # 5010 <__TMC_END__>
    11ce:	48 29 fe             	sub    %rdi,%rsi
    11d1:	48 89 f0             	mov    %rsi,%rax
    11d4:	48 c1 ee 3f          	shr    $0x3f,%rsi
    11d8:	48 c1 f8 03          	sar    $0x3,%rax
    11dc:	48 01 c6             	add    %rax,%rsi
    11df:	48 d1 fe             	sar    %rsi
    11e2:	74 14                	je     11f8 <register_tm_clones+0x38>
    11e4:	48 8b 05 05 3e 00 00 	mov    0x3e05(%rip),%rax        # 4ff0 <_ITM_registerTMCloneTable>
    11eb:	48 85 c0             	test   %rax,%rax
    11ee:	74 08                	je     11f8 <register_tm_clones+0x38>
    11f0:	ff e0                	jmpq   *%rax
    11f2:	66 0f 1f 44 00 00    	nopw   0x0(%rax,%rax,1)
    11f8:	c3                   	retq   
    11f9:	0f 1f 80 00 00 00 00 	nopl   0x0(%rax)

0000000000001200 <__do_global_dtors_aux>:
    1200:	f3 0f 1e fa          	endbr64 
    1204:	80 3d 45 3f 00 00 00 	cmpb   $0x0,0x3f45(%rip)        # 5150 <completed.8061>
    120b:	75 2b                	jne    1238 <__do_global_dtors_aux+0x38>
    120d:	55                   	push   %rbp
    120e:	48 83 3d b2 3d 00 00 	cmpq   $0x0,0x3db2(%rip)        # 4fc8 <__cxa_finalize@GLIBC_2.2.5>
    1215:	00 
    1216:	48 89 e5             	mov    %rsp,%rbp
    1219:	74 0c                	je     1227 <__do_global_dtors_aux+0x27>
    121b:	48 8b 3d e6 3d 00 00 	mov    0x3de6(%rip),%rdi        # 5008 <__dso_handle>
    1222:	e8 99 fe ff ff       	callq  10c0 <__cxa_finalize@plt>
    1227:	e8 64 ff ff ff       	callq  1190 <deregister_tm_clones>
    122c:	c6 05 1d 3f 00 00 01 	movb   $0x1,0x3f1d(%rip)        # 5150 <completed.8061>
    1233:	5d                   	pop    %rbp
    1234:	c3                   	retq   
    1235:	0f 1f 00             	nopl   (%rax)
    1238:	c3                   	retq   
    1239:	0f 1f 80 00 00 00 00 	nopl   0x0(%rax)

0000000000001240 <frame_dummy>:
    1240:	f3 0f 1e fa          	endbr64 
    1244:	e9 77 ff ff ff       	jmpq   11c0 <register_tm_clones>

0000000000001249 <main>:
    1249:	f3 0f 1e fa          	endbr64 
    124d:	55                   	push   %rbp
    124e:	48 89 e5             	mov    %rsp,%rbp
    1251:	41 57                	push   %r15
    1253:	41 56                	push   %r14
    1255:	41 55                	push   %r13
    1257:	41 54                	push   %r12
    1259:	53                   	push   %rbx
    125a:	48 83 ec 58          	sub    $0x58,%rsp
    125e:	89 7d 8c             	mov    %edi,-0x74(%rbp)
    1261:	48 89 75 80          	mov    %rsi,-0x80(%rbp)
    1265:	64 48 8b 04 25 28 00 	mov    %fs:0x28,%rax
    126c:	00 00 
    126e:	48 89 45 c8          	mov    %rax,-0x38(%rbp)
    1272:	31 c0                	xor    %eax,%eax
    1274:	48 89 e0             	mov    %rsp,%rax
    1277:	48 89 c3             	mov    %rax,%rbx
    127a:	48 8b 45 80          	mov    -0x80(%rbp),%rax
    127e:	48 83 c0 08          	add    $0x8,%rax
    1282:	48 8b 00             	mov    (%rax),%rax
    1285:	48 89 c7             	mov    %rax,%rdi
    1288:	e8 b3 fe ff ff       	callq  1140 <atoi@plt>
    128d:	89 45 a4             	mov    %eax,-0x5c(%rbp)
    1290:	8b 45 a4             	mov    -0x5c(%rbp),%eax
    1293:	48 98                	cltq   
    1295:	48 83 e8 01          	sub    $0x1,%rax
    1299:	48 89 45 b8          	mov    %rax,-0x48(%rbp)
    129d:	48 89 c2             	mov    %rax,%rdx
    12a0:	48 83 c2 01          	add    $0x1,%rdx
    12a4:	49 89 d6             	mov    %rdx,%r14
    12a7:	41 bf 00 00 00 00    	mov    $0x0,%r15d
    12ad:	48 89 c2             	mov    %rax,%rdx
    12b0:	48 83 c2 01          	add    $0x1,%rdx
    12b4:	49 89 d4             	mov    %rdx,%r12
    12b7:	41 bd 00 00 00 00    	mov    $0x0,%r13d
    12bd:	48 83 c0 01          	add    $0x1,%rax
    12c1:	48 8d 14 85 00 00 00 	lea    0x0(,%rax,4),%rdx
    12c8:	00 
    12c9:	b8 10 00 00 00       	mov    $0x10,%eax
    12ce:	48 83 e8 01          	sub    $0x1,%rax
    12d2:	48 01 d0             	add    %rdx,%rax
    12d5:	be 10 00 00 00       	mov    $0x10,%esi
    12da:	ba 00 00 00 00       	mov    $0x0,%edx
    12df:	48 f7 f6             	div    %rsi
    12e2:	48 6b c0 10          	imul   $0x10,%rax,%rax
    12e6:	48 89 c2             	mov    %rax,%rdx
    12e9:	48 81 e2 00 f0 ff ff 	and    $0xfffffffffffff000,%rdx
    12f0:	48 89 e1             	mov    %rsp,%rcx
    12f3:	48 29 d1             	sub    %rdx,%rcx
    12f6:	48 89 ca             	mov    %rcx,%rdx
    12f9:	48 39 d4             	cmp    %rdx,%rsp
    12fc:	74 12                	je     1310 <main+0xc7>
    12fe:	48 81 ec 00 10 00 00 	sub    $0x1000,%rsp
    1305:	48 83 8c 24 f8 0f 00 	orq    $0x0,0xff8(%rsp)
    130c:	00 00 
    130e:	eb e9                	jmp    12f9 <main+0xb0>
    1310:	48 89 c2             	mov    %rax,%rdx
    1313:	81 e2 ff 0f 00 00    	and    $0xfff,%edx
    1319:	48 29 d4             	sub    %rdx,%rsp
    131c:	48 89 c2             	mov    %rax,%rdx
    131f:	81 e2 ff 0f 00 00    	and    $0xfff,%edx
    1325:	48 85 d2             	test   %rdx,%rdx
    1328:	74 10                	je     133a <main+0xf1>
    132a:	25 ff 0f 00 00       	and    $0xfff,%eax
    132f:	48 83 e8 08          	sub    $0x8,%rax
    1333:	48 01 e0             	add    %rsp,%rax
    1336:	48 83 08 00          	orq    $0x0,(%rax)
    133a:	48 89 e0             	mov    %rsp,%rax
    133d:	48 83 c0 03          	add    $0x3,%rax
    1341:	48 c1 e8 02          	shr    $0x2,%rax
    1345:	48 c1 e0 02          	shl    $0x2,%rax
    1349:	48 89 45 c0          	mov    %rax,-0x40(%rbp)
    134d:	48 c7 45 b0 00 00 00 	movq   $0x0,-0x50(%rbp)
    1354:	00 
    1355:	48 8b 45 80          	mov    -0x80(%rbp),%rax
    1359:	48 83 c0 10          	add    $0x10,%rax
    135d:	48 8b 00             	mov    (%rax),%rax
    1360:	48 89 c7             	mov    %rax,%rdi
    1363:	e8 d8 fd ff ff       	callq  1140 <atoi@plt>
    1368:	89 45 a8             	mov    %eax,-0x58(%rbp)
    136b:	48 8b 45 80          	mov    -0x80(%rbp),%rax
    136f:	48 83 c0 18          	add    $0x18,%rax
    1373:	48 8b 00             	mov    (%rax),%rax
    1376:	48 89 c7             	mov    %rax,%rdi
    1379:	e8 c2 fd ff ff       	callq  1140 <atoi@plt>
    137e:	89 45 ac             	mov    %eax,-0x54(%rbp)
    1381:	c7 45 a0 00 00 00 00 	movl   $0x0,-0x60(%rbp)
    1388:	8b 45 a4             	mov    -0x5c(%rbp),%eax
    138b:	39 45 a0             	cmp    %eax,-0x60(%rbp)
    138e:	73 15                	jae    13a5 <main+0x15c>
    1390:	e8 3b fd ff ff       	callq  10d0 <rand@plt>
    1395:	48 8b 55 c0          	mov    -0x40(%rbp),%rdx
    1399:	8b 4d a0             	mov    -0x60(%rbp),%ecx
    139c:	89 04 8a             	mov    %eax,(%rdx,%rcx,4)
    139f:	83 45 a0 01          	addl   $0x1,-0x60(%rbp)
    13a3:	eb e3                	jmp    1388 <main+0x13f>
    13a5:	83 7d ac 00          	cmpl   $0x0,-0x54(%rbp)
    13a9:	74 23                	je     13ce <main+0x185>
    13ab:	8b 45 a4             	mov    -0x5c(%rbp),%eax
    13ae:	48 98                	cltq   
    13b0:	48 8d 14 85 00 00 00 	lea    0x0(,%rax,4),%rdx
    13b7:	00 
    13b8:	48 8b 45 c0          	mov    -0x40(%rbp),%rax
    13bc:	48 01 c2             	add    %rax,%rdx
    13bf:	48 8b 45 c0          	mov    -0x40(%rbp),%rax
    13c3:	48 89 d6             	mov    %rdx,%rsi
    13c6:	48 89 c7             	mov    %rax,%rdi
    13c9:	e8 44 01 00 00       	callq  1512 <_ZSt4sortIPiEvT_S1_>
    13ce:	c7 45 9c 00 00 00 00 	movl   $0x0,-0x64(%rbp)
    13d5:	8b 45 a8             	mov    -0x58(%rbp),%eax
    13d8:	39 45 9c             	cmp    %eax,-0x64(%rbp)
    13db:	73 22                	jae    13ff <main+0x1b6>
    13dd:	e8 ee fc ff ff       	callq  10d0 <rand@plt>
    13e2:	89 c2                	mov    %eax,%edx
    13e4:	8b 4d a4             	mov    -0x5c(%rbp),%ecx
    13e7:	48 8b 45 c0          	mov    -0x40(%rbp),%rax
    13eb:	89 ce                	mov    %ecx,%esi
    13ed:	48 89 c7             	mov    %rax,%rdi
    13f0:	e8 c2 0e 00 00       	callq  22b7 <calculate_sum>
    13f5:	48 01 45 b0          	add    %rax,-0x50(%rbp)
    13f9:	83 45 9c 01          	addl   $0x1,-0x64(%rbp)
    13fd:	eb d6                	jmp    13d5 <main+0x18c>
    13ff:	48 8d 35 ff 1b 00 00 	lea    0x1bff(%rip),%rsi        # 3005 <_ZStL19piecewise_construct+0x1>
    1406:	48 8d 3d 33 3c 00 00 	lea    0x3c33(%rip),%rdi        # 5040 <_ZSt4cout@@GLIBCXX_3.4>
    140d:	e8 ee fc ff ff       	callq  1100 <_ZStlsISt11char_traitsIcEERSt13basic_ostreamIcT_ES5_PKc@plt>
    1412:	48 89 c2             	mov    %rax,%rdx
    1415:	48 8b 45 b0          	mov    -0x50(%rbp),%rax
    1419:	48 89 c6             	mov    %rax,%rsi
    141c:	48 89 d7             	mov    %rdx,%rdi
    141f:	e8 bc fc ff ff       	callq  10e0 <_ZNSolsEx@plt>
    1424:	48 89 c2             	mov    %rax,%rdx
    1427:	48 8b 05 a2 3b 00 00 	mov    0x3ba2(%rip),%rax        # 4fd0 <_ZSt4endlIcSt11char_traitsIcEERSt13basic_ostreamIT_T0_ES6_@GLIBCXX_3.4>
    142e:	48 89 c6             	mov    %rax,%rsi
    1431:	48 89 d7             	mov    %rdx,%rdi
    1434:	e8 d7 fc ff ff       	callq  1110 <_ZNSolsEPFRSoS_E@plt>
    1439:	48 89 dc             	mov    %rbx,%rsp
    143c:	b8 00 00 00 00       	mov    $0x0,%eax
    1441:	48 8b 5d c8          	mov    -0x38(%rbp),%rbx
    1445:	64 48 33 1c 25 28 00 	xor    %fs:0x28,%rbx
    144c:	00 00 
    144e:	74 05                	je     1455 <main+0x20c>
    1450:	e8 cb fc ff ff       	callq  1120 <__stack_chk_fail@plt>
    1455:	48 8d 65 d8          	lea    -0x28(%rbp),%rsp
    1459:	5b                   	pop    %rbx
    145a:	41 5c                	pop    %r12
    145c:	41 5d                	pop    %r13
    145e:	41 5e                	pop    %r14
    1460:	41 5f                	pop    %r15
    1462:	5d                   	pop    %rbp
    1463:	c3                   	retq   

0000000000001464 <_Z41__static_initialization_and_destruction_0ii>:
    1464:	f3 0f 1e fa          	endbr64 
    1468:	55                   	push   %rbp
    1469:	48 89 e5             	mov    %rsp,%rbp
    146c:	48 83 ec 10          	sub    $0x10,%rsp
    1470:	89 7d fc             	mov    %edi,-0x4(%rbp)
    1473:	89 75 f8             	mov    %esi,-0x8(%rbp)
    1476:	83 7d fc 01          	cmpl   $0x1,-0x4(%rbp)
    147a:	75 32                	jne    14ae <_Z41__static_initialization_and_destruction_0ii+0x4a>
    147c:	81 7d f8 ff ff 00 00 	cmpl   $0xffff,-0x8(%rbp)
    1483:	75 29                	jne    14ae <_Z41__static_initialization_and_destruction_0ii+0x4a>
    1485:	48 8d 3d c5 3c 00 00 	lea    0x3cc5(%rip),%rdi        # 5151 <_ZStL8__ioinit>
    148c:	e8 9f fc ff ff       	callq  1130 <_ZNSt8ios_base4InitC1Ev@plt>
    1491:	48 8d 15 70 3b 00 00 	lea    0x3b70(%rip),%rdx        # 5008 <__dso_handle>
    1498:	48 8d 35 b2 3c 00 00 	lea    0x3cb2(%rip),%rsi        # 5151 <_ZStL8__ioinit>
    149f:	48 8b 05 52 3b 00 00 	mov    0x3b52(%rip),%rax        # 4ff8 <_ZNSt8ios_base4InitD1Ev@GLIBCXX_3.4>
    14a6:	48 89 c7             	mov    %rax,%rdi
    14a9:	e8 42 fc ff ff       	callq  10f0 <__cxa_atexit@plt>
    14ae:	90                   	nop
    14af:	c9                   	leaveq 
    14b0:	c3                   	retq   

00000000000014b1 <_GLOBAL__sub_I_main>:
    14b1:	f3 0f 1e fa          	endbr64 
    14b5:	55                   	push   %rbp
    14b6:	48 89 e5             	mov    %rsp,%rbp
    14b9:	be ff ff 00 00       	mov    $0xffff,%esi
    14be:	bf 01 00 00 00       	mov    $0x1,%edi
    14c3:	e8 9c ff ff ff       	callq  1464 <_Z41__static_initialization_and_destruction_0ii>
    14c8:	5d                   	pop    %rbp
    14c9:	c3                   	retq   

00000000000014ca <_ZN9__gnu_cxx5__ops16__iter_less_iterEv>:
    14ca:	f3 0f 1e fa          	endbr64 
    14ce:	55                   	push   %rbp
    14cf:	48 89 e5             	mov    %rsp,%rbp
    14d2:	5d                   	pop    %rbp
    14d3:	c3                   	retq   

00000000000014d4 <_ZN9__gnu_cxx5__ops14_Iter_less_valC1ENS0_15_Iter_less_iterE>:
    14d4:	f3 0f 1e fa          	endbr64 
    14d8:	55                   	push   %rbp
    14d9:	48 89 e5             	mov    %rsp,%rbp
    14dc:	48 89 7d f8          	mov    %rdi,-0x8(%rbp)
    14e0:	90                   	nop
    14e1:	5d                   	pop    %rbp
    14e2:	c3                   	retq   

00000000000014e3 <_ZN9__gnu_cxx5__ops15__val_comp_iterENS0_15_Iter_less_iterE>:
    14e3:	f3 0f 1e fa          	endbr64 
    14e7:	55                   	push   %rbp
    14e8:	48 89 e5             	mov    %rsp,%rbp
    14eb:	5d                   	pop    %rbp
    14ec:	c3                   	retq   

00000000000014ed <_ZSt4__lgl>:
    14ed:	f3 0f 1e fa          	endbr64 
    14f1:	55                   	push   %rbp
    14f2:	48 89 e5             	mov    %rsp,%rbp
    14f5:	48 89 7d f8          	mov    %rdi,-0x8(%rbp)
    14f9:	48 8b 45 f8          	mov    -0x8(%rbp),%rax
    14fd:	48 0f bd c0          	bsr    %rax,%rax
    1501:	48 83 f0 3f          	xor    $0x3f,%rax
    1505:	ba 3f 00 00 00       	mov    $0x3f,%edx
    150a:	29 c2                	sub    %eax,%edx
    150c:	89 d0                	mov    %edx,%eax
    150e:	48 98                	cltq   
    1510:	5d                   	pop    %rbp
    1511:	c3                   	retq   

0000000000001512 <_ZSt4sortIPiEvT_S1_>:
    1512:	f3 0f 1e fa          	endbr64 
    1516:	55                   	push   %rbp
    1517:	48 89 e5             	mov    %rsp,%rbp
    151a:	48 83 ec 20          	sub    $0x20,%rsp
    151e:	48 89 7d e8          	mov    %rdi,-0x18(%rbp)
    1522:	48 89 75 e0          	mov    %rsi,-0x20(%rbp)
    1526:	64 48 8b 04 25 28 00 	mov    %fs:0x28,%rax
    152d:	00 00 
    152f:	48 89 45 f8          	mov    %rax,-0x8(%rbp)
    1533:	31 c0                	xor    %eax,%eax
    1535:	e8 90 ff ff ff       	callq  14ca <_ZN9__gnu_cxx5__ops16__iter_less_iterEv>
    153a:	48 8b 55 e0          	mov    -0x20(%rbp),%rdx
    153e:	48 8b 45 e8          	mov    -0x18(%rbp),%rax
    1542:	48 89 d6             	mov    %rdx,%rsi
    1545:	48 89 c7             	mov    %rax,%rdi
    1548:	e8 17 00 00 00       	callq  1564 <_ZSt6__sortIPiN9__gnu_cxx5__ops15_Iter_less_iterEEvT_S4_T0_>
    154d:	90                   	nop
    154e:	48 8b 45 f8          	mov    -0x8(%rbp),%rax
    1552:	64 48 33 04 25 28 00 	xor    %fs:0x28,%rax
    1559:	00 00 
    155b:	74 05                	je     1562 <_ZSt4sortIPiEvT_S1_+0x50>
    155d:	e8 be fb ff ff       	callq  1120 <__stack_chk_fail@plt>
    1562:	c9                   	leaveq 
    1563:	c3                   	retq   

0000000000001564 <_ZSt6__sortIPiN9__gnu_cxx5__ops15_Iter_less_iterEEvT_S4_T0_>:
    1564:	f3 0f 1e fa          	endbr64 
    1568:	55                   	push   %rbp
    1569:	48 89 e5             	mov    %rsp,%rbp
    156c:	48 83 ec 20          	sub    $0x20,%rsp
    1570:	48 89 7d f8          	mov    %rdi,-0x8(%rbp)
    1574:	48 89 75 f0          	mov    %rsi,-0x10(%rbp)
    1578:	48 8b 45 f8          	mov    -0x8(%rbp),%rax
    157c:	48 3b 45 f0          	cmp    -0x10(%rbp),%rax
    1580:	74 3e                	je     15c0 <_ZSt6__sortIPiN9__gnu_cxx5__ops15_Iter_less_iterEEvT_S4_T0_+0x5c>
    1582:	48 8b 45 f0          	mov    -0x10(%rbp),%rax
    1586:	48 2b 45 f8          	sub    -0x8(%rbp),%rax
    158a:	48 c1 f8 02          	sar    $0x2,%rax
    158e:	48 89 c7             	mov    %rax,%rdi
    1591:	e8 57 ff ff ff       	callq  14ed <_ZSt4__lgl>
    1596:	48 8d 14 00          	lea    (%rax,%rax,1),%rdx
    159a:	48 8b 4d f0          	mov    -0x10(%rbp),%rcx
    159e:	48 8b 45 f8          	mov    -0x8(%rbp),%rax
    15a2:	48 89 ce             	mov    %rcx,%rsi
    15a5:	48 89 c7             	mov    %rax,%rdi
    15a8:	e8 16 00 00 00       	callq  15c3 <_ZSt16__introsort_loopIPilN9__gnu_cxx5__ops15_Iter_less_iterEEvT_S4_T0_T1_>
    15ad:	48 8b 55 f0          	mov    -0x10(%rbp),%rdx
    15b1:	48 8b 45 f8          	mov    -0x8(%rbp),%rax
    15b5:	48 89 d6             	mov    %rdx,%rsi
    15b8:	48 89 c7             	mov    %rax,%rdi
    15bb:	e8 88 00 00 00       	callq  1648 <_ZSt22__final_insertion_sortIPiN9__gnu_cxx5__ops15_Iter_less_iterEEvT_S4_T0_>
    15c0:	90                   	nop
    15c1:	c9                   	leaveq 
    15c2:	c3                   	retq   

00000000000015c3 <_ZSt16__introsort_loopIPilN9__gnu_cxx5__ops15_Iter_less_iterEEvT_S4_T0_T1_>:
    15c3:	f3 0f 1e fa          	endbr64 
    15c7:	55                   	push   %rbp
    15c8:	48 89 e5             	mov    %rsp,%rbp
    15cb:	48 83 ec 30          	sub    $0x30,%rsp
    15cf:	48 89 7d e8          	mov    %rdi,-0x18(%rbp)
    15d3:	48 89 75 e0          	mov    %rsi,-0x20(%rbp)
    15d7:	48 89 55 d8          	mov    %rdx,-0x28(%rbp)
    15db:	48 8b 45 e0          	mov    -0x20(%rbp),%rax
    15df:	48 2b 45 e8          	sub    -0x18(%rbp),%rax
    15e3:	48 83 f8 40          	cmp    $0x40,%rax
    15e7:	7e 5d                	jle    1646 <_ZSt16__introsort_loopIPilN9__gnu_cxx5__ops15_Iter_less_iterEEvT_S4_T0_T1_+0x83>
    15e9:	48 83 7d d8 00       	cmpq   $0x0,-0x28(%rbp)
    15ee:	75 19                	jne    1609 <_ZSt16__introsort_loopIPilN9__gnu_cxx5__ops15_Iter_less_iterEEvT_S4_T0_T1_+0x46>
    15f0:	48 8b 55 e0          	mov    -0x20(%rbp),%rdx
    15f4:	48 8b 4d e0          	mov    -0x20(%rbp),%rcx
    15f8:	48 8b 45 e8          	mov    -0x18(%rbp),%rax
    15fc:	48 89 ce             	mov    %rcx,%rsi
    15ff:	48 89 c7             	mov    %rax,%rdi
    1602:	e8 a9 00 00 00       	callq  16b0 <_ZSt14__partial_sortIPiN9__gnu_cxx5__ops15_Iter_less_iterEEvT_S4_S4_T0_>
    1607:	eb 3d                	jmp    1646 <_ZSt16__introsort_loopIPilN9__gnu_cxx5__ops15_Iter_less_iterEEvT_S4_T0_T1_+0x83>
    1609:	48 83 6d d8 01       	subq   $0x1,-0x28(%rbp)
    160e:	48 8b 55 e0          	mov    -0x20(%rbp),%rdx
    1612:	48 8b 45 e8          	mov    -0x18(%rbp),%rax
    1616:	48 89 d6             	mov    %rdx,%rsi
    1619:	48 89 c7             	mov    %rax,%rdi
    161c:	e8 d8 00 00 00       	callq  16f9 <_ZSt27__unguarded_partition_pivotIPiN9__gnu_cxx5__ops15_Iter_less_iterEET_S4_S4_T0_>
    1621:	48 89 45 f8          	mov    %rax,-0x8(%rbp)
    1625:	48 8b 55 d8          	mov    -0x28(%rbp),%rdx
    1629:	48 8b 4d e0          	mov    -0x20(%rbp),%rcx
    162d:	48 8b 45 f8          	mov    -0x8(%rbp),%rax
    1631:	48 89 ce             	mov    %rcx,%rsi
    1634:	48 89 c7             	mov    %rax,%rdi
    1637:	e8 87 ff ff ff       	callq  15c3 <_ZSt16__introsort_loopIPilN9__gnu_cxx5__ops15_Iter_less_iterEEvT_S4_T0_T1_>
    163c:	48 8b 45 f8          	mov    -0x8(%rbp),%rax
    1640:	48 89 45 e0          	mov    %rax,-0x20(%rbp)
    1644:	eb 95                	jmp    15db <_ZSt16__introsort_loopIPilN9__gnu_cxx5__ops15_Iter_less_iterEEvT_S4_T0_T1_+0x18>
    1646:	c9                   	leaveq 
    1647:	c3                   	retq   

0000000000001648 <_ZSt22__final_insertion_sortIPiN9__gnu_cxx5__ops15_Iter_less_iterEEvT_S4_T0_>:
    1648:	f3 0f 1e fa          	endbr64 
    164c:	55                   	push   %rbp
    164d:	48 89 e5             	mov    %rsp,%rbp
    1650:	48 83 ec 20          	sub    $0x20,%rsp
    1654:	48 89 7d f8          	mov    %rdi,-0x8(%rbp)
    1658:	48 89 75 f0          	mov    %rsi,-0x10(%rbp)
    165c:	48 8b 45 f0          	mov    -0x10(%rbp),%rax
    1660:	48 2b 45 f8          	sub    -0x8(%rbp),%rax
    1664:	48 83 f8 40          	cmp    $0x40,%rax
    1668:	7e 30                	jle    169a <_ZSt22__final_insertion_sortIPiN9__gnu_cxx5__ops15_Iter_less_iterEEvT_S4_T0_+0x52>
    166a:	48 8b 45 f8          	mov    -0x8(%rbp),%rax
    166e:	48 8d 50 40          	lea    0x40(%rax),%rdx
    1672:	48 8b 45 f8          	mov    -0x8(%rbp),%rax
    1676:	48 89 d6             	mov    %rdx,%rsi
    1679:	48 89 c7             	mov    %rax,%rdi
    167c:	e8 f5 00 00 00       	callq  1776 <_ZSt16__insertion_sortIPiN9__gnu_cxx5__ops15_Iter_less_iterEEvT_S4_T0_>
    1681:	48 8b 45 f8          	mov    -0x8(%rbp),%rax
    1685:	48 8d 50 40          	lea    0x40(%rax),%rdx
    1689:	48 8b 45 f0          	mov    -0x10(%rbp),%rax
    168d:	48 89 c6             	mov    %rax,%rsi
    1690:	48 89 d7             	mov    %rdx,%rdi
    1693:	e8 b1 01 00 00       	callq  1849 <_ZSt26__unguarded_insertion_sortIPiN9__gnu_cxx5__ops15_Iter_less_iterEEvT_S4_T0_>
    1698:	eb 13                	jmp    16ad <_ZSt22__final_insertion_sortIPiN9__gnu_cxx5__ops15_Iter_less_iterEEvT_S4_T0_+0x65>
    169a:	48 8b 55 f0          	mov    -0x10(%rbp),%rdx
    169e:	48 8b 45 f8          	mov    -0x8(%rbp),%rax
    16a2:	48 89 d6             	mov    %rdx,%rsi
    16a5:	48 89 c7             	mov    %rax,%rdi
    16a8:	e8 c9 00 00 00       	callq  1776 <_ZSt16__insertion_sortIPiN9__gnu_cxx5__ops15_Iter_less_iterEEvT_S4_T0_>
    16ad:	90                   	nop
    16ae:	c9                   	leaveq 
    16af:	c3                   	retq   

00000000000016b0 <_ZSt14__partial_sortIPiN9__gnu_cxx5__ops15_Iter_less_iterEEvT_S4_S4_T0_>:
    16b0:	f3 0f 1e fa          	endbr64 
    16b4:	55                   	push   %rbp
    16b5:	48 89 e5             	mov    %rsp,%rbp
    16b8:	48 83 ec 20          	sub    $0x20,%rsp
    16bc:	48 89 7d f8          	mov    %rdi,-0x8(%rbp)
    16c0:	48 89 75 f0          	mov    %rsi,-0x10(%rbp)
    16c4:	48 89 55 e8          	mov    %rdx,-0x18(%rbp)
    16c8:	48 8b 55 e8          	mov    -0x18(%rbp),%rdx
    16cc:	48 8b 4d f0          	mov    -0x10(%rbp),%rcx
    16d0:	48 8b 45 f8          	mov    -0x8(%rbp),%rax
    16d4:	48 89 ce             	mov    %rcx,%rsi
    16d7:	48 89 c7             	mov    %rax,%rdi
    16da:	e8 ce 01 00 00       	callq  18ad <_ZSt13__heap_selectIPiN9__gnu_cxx5__ops15_Iter_less_iterEEvT_S4_S4_T0_>
    16df:	48 8d 55 e7          	lea    -0x19(%rbp),%rdx
    16e3:	48 8b 4d f0          	mov    -0x10(%rbp),%rcx
    16e7:	48 8b 45 f8          	mov    -0x8(%rbp),%rax
    16eb:	48 89 ce             	mov    %rcx,%rsi
    16ee:	48 89 c7             	mov    %rax,%rdi
    16f1:	e8 35 02 00 00       	callq  192b <_ZSt11__sort_heapIPiN9__gnu_cxx5__ops15_Iter_less_iterEEvT_S4_RT0_>
    16f6:	90                   	nop
    16f7:	c9                   	leaveq 
    16f8:	c3                   	retq   

00000000000016f9 <_ZSt27__unguarded_partition_pivotIPiN9__gnu_cxx5__ops15_Iter_less_iterEET_S4_S4_T0_>:
    16f9:	f3 0f 1e fa          	endbr64 
    16fd:	55                   	push   %rbp
    16fe:	48 89 e5             	mov    %rsp,%rbp
    1701:	48 83 ec 30          	sub    $0x30,%rsp
    1705:	48 89 7d e8          	mov    %rdi,-0x18(%rbp)
    1709:	48 89 75 e0          	mov    %rsi,-0x20(%rbp)
    170d:	48 8b 45 e0          	mov    -0x20(%rbp),%rax
    1711:	48 2b 45 e8          	sub    -0x18(%rbp),%rax
    1715:	48 c1 f8 02          	sar    $0x2,%rax
    1719:	48 89 c2             	mov    %rax,%rdx
    171c:	48 c1 ea 3f          	shr    $0x3f,%rdx
    1720:	48 01 d0             	add    %rdx,%rax
    1723:	48 d1 f8             	sar    %rax
    1726:	48 8d 14 85 00 00 00 	lea    0x0(,%rax,4),%rdx
    172d:	00 
    172e:	48 8b 45 e8          	mov    -0x18(%rbp),%rax
    1732:	48 01 d0             	add    %rdx,%rax
    1735:	48 89 45 f8          	mov    %rax,-0x8(%rbp)
    1739:	48 8b 45 e0          	mov    -0x20(%rbp),%rax
    173d:	48 8d 48 fc          	lea    -0x4(%rax),%rcx
    1741:	48 8b 45 e8          	mov    -0x18(%rbp),%rax
    1745:	48 8d 70 04          	lea    0x4(%rax),%rsi
    1749:	48 8b 55 f8          	mov    -0x8(%rbp),%rdx
    174d:	48 8b 45 e8          	mov    -0x18(%rbp),%rax
    1751:	48 89 c7             	mov    %rax,%rdi
    1754:	e8 42 02 00 00       	callq  199b <_ZSt22__move_median_to_firstIPiN9__gnu_cxx5__ops15_Iter_less_iterEEvT_S4_S4_S4_T0_>
    1759:	48 8b 45 e8          	mov    -0x18(%rbp),%rax
    175d:	48 8d 48 04          	lea    0x4(%rax),%rcx
    1761:	48 8b 55 e8          	mov    -0x18(%rbp),%rdx
    1765:	48 8b 45 e0          	mov    -0x20(%rbp),%rax
    1769:	48 89 c6             	mov    %rax,%rsi
    176c:	48 89 cf             	mov    %rcx,%rdi
    176f:	e8 4f 03 00 00       	callq  1ac3 <_ZSt21__unguarded_partitionIPiN9__gnu_cxx5__ops15_Iter_less_iterEET_S4_S4_S4_T0_>
    1774:	c9                   	leaveq 
    1775:	c3                   	retq   

0000000000001776 <_ZSt16__insertion_sortIPiN9__gnu_cxx5__ops15_Iter_less_iterEEvT_S4_T0_>:
    1776:	f3 0f 1e fa          	endbr64 
    177a:	55                   	push   %rbp
    177b:	48 89 e5             	mov    %rsp,%rbp
    177e:	48 83 ec 40          	sub    $0x40,%rsp
    1782:	48 89 7d d8          	mov    %rdi,-0x28(%rbp)
    1786:	48 89 75 d0          	mov    %rsi,-0x30(%rbp)
    178a:	64 48 8b 04 25 28 00 	mov    %fs:0x28,%rax
    1791:	00 00 
    1793:	48 89 45 f8          	mov    %rax,-0x8(%rbp)
    1797:	31 c0                	xor    %eax,%eax
    1799:	48 8b 45 d8          	mov    -0x28(%rbp),%rax
    179d:	48 3b 45 d0          	cmp    -0x30(%rbp),%rax
    17a1:	0f 84 8b 00 00 00    	je     1832 <_ZSt16__insertion_sortIPiN9__gnu_cxx5__ops15_Iter_less_iterEEvT_S4_T0_+0xbc>
    17a7:	48 8b 45 d8          	mov    -0x28(%rbp),%rax
    17ab:	48 83 c0 04          	add    $0x4,%rax
    17af:	48 89 45 f0          	mov    %rax,-0x10(%rbp)
    17b3:	48 8b 45 f0          	mov    -0x10(%rbp),%rax
    17b7:	48 3b 45 d0          	cmp    -0x30(%rbp),%rax
    17bb:	74 76                	je     1833 <_ZSt16__insertion_sortIPiN9__gnu_cxx5__ops15_Iter_less_iterEEvT_S4_T0_+0xbd>
    17bd:	48 8b 55 d8          	mov    -0x28(%rbp),%rdx
    17c1:	48 8b 4d f0          	mov    -0x10(%rbp),%rcx
    17c5:	48 8d 45 cf          	lea    -0x31(%rbp),%rax
    17c9:	48 89 ce             	mov    %rcx,%rsi
    17cc:	48 89 c7             	mov    %rax,%rdi
    17cf:	e8 a0 01 00 00       	callq  1974 <_ZNK9__gnu_cxx5__ops15_Iter_less_iterclIPiS3_EEbT_T0_>
    17d4:	84 c0                	test   %al,%al
    17d6:	74 42                	je     181a <_ZSt16__insertion_sortIPiN9__gnu_cxx5__ops15_Iter_less_iterEEvT_S4_T0_+0xa4>
    17d8:	48 8b 45 f0          	mov    -0x10(%rbp),%rax
    17dc:	48 89 c7             	mov    %rax,%rdi
    17df:	e8 6c 03 00 00       	callq  1b50 <_ZSt4moveIRiEONSt16remove_referenceIT_E4typeEOS2_>
    17e4:	8b 00                	mov    (%rax),%eax
    17e6:	89 45 ec             	mov    %eax,-0x14(%rbp)
    17e9:	48 8b 45 f0          	mov    -0x10(%rbp),%rax
    17ed:	48 8d 50 04          	lea    0x4(%rax),%rdx
    17f1:	48 8b 4d f0          	mov    -0x10(%rbp),%rcx
    17f5:	48 8b 45 d8          	mov    -0x28(%rbp),%rax
    17f9:	48 89 ce             	mov    %rcx,%rsi
    17fc:	48 89 c7             	mov    %rax,%rdi
    17ff:	e8 5e 03 00 00       	callq  1b62 <_ZSt13move_backwardIPiS0_ET0_T_S2_S1_>
    1804:	48 8d 45 ec          	lea    -0x14(%rbp),%rax
    1808:	48 89 c7             	mov    %rax,%rdi
    180b:	e8 40 03 00 00       	callq  1b50 <_ZSt4moveIRiEONSt16remove_referenceIT_E4typeEOS2_>
    1810:	8b 10                	mov    (%rax),%edx
    1812:	48 8b 45 d8          	mov    -0x28(%rbp),%rax
    1816:	89 10                	mov    %edx,(%rax)
    1818:	eb 11                	jmp    182b <_ZSt16__insertion_sortIPiN9__gnu_cxx5__ops15_Iter_less_iterEEvT_S4_T0_+0xb5>
    181a:	e8 c4 fc ff ff       	callq  14e3 <_ZN9__gnu_cxx5__ops15__val_comp_iterENS0_15_Iter_less_iterE>
    181f:	48 8b 45 f0          	mov    -0x10(%rbp),%rax
    1823:	48 89 c7             	mov    %rax,%rdi
    1826:	e8 87 03 00 00       	callq  1bb2 <_ZSt25__unguarded_linear_insertIPiN9__gnu_cxx5__ops14_Val_less_iterEEvT_T0_>
    182b:	48 83 45 f0 04       	addq   $0x4,-0x10(%rbp)
    1830:	eb 81                	jmp    17b3 <_ZSt16__insertion_sortIPiN9__gnu_cxx5__ops15_Iter_less_iterEEvT_S4_T0_+0x3d>
    1832:	90                   	nop
    1833:	48 8b 45 f8          	mov    -0x8(%rbp),%rax
    1837:	64 48 33 04 25 28 00 	xor    %fs:0x28,%rax
    183e:	00 00 
    1840:	74 05                	je     1847 <_ZSt16__insertion_sortIPiN9__gnu_cxx5__ops15_Iter_less_iterEEvT_S4_T0_+0xd1>
    1842:	e8 d9 f8 ff ff       	callq  1120 <__stack_chk_fail@plt>
    1847:	c9                   	leaveq 
    1848:	c3                   	retq   

0000000000001849 <_ZSt26__unguarded_insertion_sortIPiN9__gnu_cxx5__ops15_Iter_less_iterEEvT_S4_T0_>:
    1849:	f3 0f 1e fa          	endbr64 
    184d:	55                   	push   %rbp
    184e:	48 89 e5             	mov    %rsp,%rbp
    1851:	48 83 ec 40          	sub    $0x40,%rsp
    1855:	48 89 7d d8          	mov    %rdi,-0x28(%rbp)
    1859:	48 89 75 d0          	mov    %rsi,-0x30(%rbp)
    185d:	64 48 8b 04 25 28 00 	mov    %fs:0x28,%rax
    1864:	00 00 
    1866:	48 89 45 f8          	mov    %rax,-0x8(%rbp)
    186a:	31 c0                	xor    %eax,%eax
    186c:	48 8b 45 d8          	mov    -0x28(%rbp),%rax
    1870:	48 89 45 f0          	mov    %rax,-0x10(%rbp)
    1874:	48 8b 45 f0          	mov    -0x10(%rbp),%rax
    1878:	48 3b 45 d0          	cmp    -0x30(%rbp),%rax
    187c:	74 18                	je     1896 <_ZSt26__unguarded_insertion_sortIPiN9__gnu_cxx5__ops15_Iter_less_iterEEvT_S4_T0_+0x4d>
    187e:	e8 60 fc ff ff       	callq  14e3 <_ZN9__gnu_cxx5__ops15__val_comp_iterENS0_15_Iter_less_iterE>
    1883:	48 8b 45 f0          	mov    -0x10(%rbp),%rax
    1887:	48 89 c7             	mov    %rax,%rdi
    188a:	e8 23 03 00 00       	callq  1bb2 <_ZSt25__unguarded_linear_insertIPiN9__gnu_cxx5__ops14_Val_less_iterEEvT_T0_>
    188f:	48 83 45 f0 04       	addq   $0x4,-0x10(%rbp)
    1894:	eb de                	jmp    1874 <_ZSt26__unguarded_insertion_sortIPiN9__gnu_cxx5__ops15_Iter_less_iterEEvT_S4_T0_+0x2b>
    1896:	90                   	nop
    1897:	48 8b 45 f8          	mov    -0x8(%rbp),%rax
    189b:	64 48 33 04 25 28 00 	xor    %fs:0x28,%rax
    18a2:	00 00 
    18a4:	74 05                	je     18ab <_ZSt26__unguarded_insertion_sortIPiN9__gnu_cxx5__ops15_Iter_less_iterEEvT_S4_T0_+0x62>
    18a6:	e8 75 f8 ff ff       	callq  1120 <__stack_chk_fail@plt>
    18ab:	c9                   	leaveq 
    18ac:	c3                   	retq   

00000000000018ad <_ZSt13__heap_selectIPiN9__gnu_cxx5__ops15_Iter_less_iterEEvT_S4_S4_T0_>:
    18ad:	f3 0f 1e fa          	endbr64 
    18b1:	55                   	push   %rbp
    18b2:	48 89 e5             	mov    %rsp,%rbp
    18b5:	48 83 ec 30          	sub    $0x30,%rsp
    18b9:	48 89 7d e8          	mov    %rdi,-0x18(%rbp)
    18bd:	48 89 75 e0          	mov    %rsi,-0x20(%rbp)
    18c1:	48 89 55 d8          	mov    %rdx,-0x28(%rbp)
    18c5:	48 8d 55 d7          	lea    -0x29(%rbp),%rdx
    18c9:	48 8b 4d e0          	mov    -0x20(%rbp),%rcx
    18cd:	48 8b 45 e8          	mov    -0x18(%rbp),%rax
    18d1:	48 89 ce             	mov    %rcx,%rsi
    18d4:	48 89 c7             	mov    %rax,%rdi
    18d7:	e8 7c 03 00 00       	callq  1c58 <_ZSt11__make_heapIPiN9__gnu_cxx5__ops15_Iter_less_iterEEvT_S4_RT0_>
    18dc:	48 8b 45 e0          	mov    -0x20(%rbp),%rax
    18e0:	48 89 45 f8          	mov    %rax,-0x8(%rbp)
    18e4:	48 8b 45 f8          	mov    -0x8(%rbp),%rax
    18e8:	48 3b 45 d8          	cmp    -0x28(%rbp),%rax
    18ec:	73 3a                	jae    1928 <_ZSt13__heap_selectIPiN9__gnu_cxx5__ops15_Iter_less_iterEEvT_S4_S4_T0_+0x7b>
    18ee:	48 8b 55 e8          	mov    -0x18(%rbp),%rdx
    18f2:	48 8b 4d f8          	mov    -0x8(%rbp),%rcx
    18f6:	48 8d 45 d7          	lea    -0x29(%rbp),%rax
    18fa:	48 89 ce             	mov    %rcx,%rsi
    18fd:	48 89 c7             	mov    %rax,%rdi
    1900:	e8 6f 00 00 00       	callq  1974 <_ZNK9__gnu_cxx5__ops15_Iter_less_iterclIPiS3_EEbT_T0_>
    1905:	84 c0                	test   %al,%al
    1907:	74 18                	je     1921 <_ZSt13__heap_selectIPiN9__gnu_cxx5__ops15_Iter_less_iterEEvT_S4_S4_T0_+0x74>
    1909:	48 8d 4d d7          	lea    -0x29(%rbp),%rcx
    190d:	48 8b 55 f8          	mov    -0x8(%rbp),%rdx
    1911:	48 8b 75 e0          	mov    -0x20(%rbp),%rsi
    1915:	48 8b 45 e8          	mov    -0x18(%rbp),%rax
    1919:	48 89 c7             	mov    %rax,%rdi
    191c:	e8 ff 03 00 00       	callq  1d20 <_ZSt10__pop_heapIPiN9__gnu_cxx5__ops15_Iter_less_iterEEvT_S4_S4_RT0_>
    1921:	48 83 45 f8 04       	addq   $0x4,-0x8(%rbp)
    1926:	eb bc                	jmp    18e4 <_ZSt13__heap_selectIPiN9__gnu_cxx5__ops15_Iter_less_iterEEvT_S4_S4_T0_+0x37>
    1928:	90                   	nop
    1929:	c9                   	leaveq 
    192a:	c3                   	retq   

000000000000192b <_ZSt11__sort_heapIPiN9__gnu_cxx5__ops15_Iter_less_iterEEvT_S4_RT0_>:
    192b:	f3 0f 1e fa          	endbr64 
    192f:	55                   	push   %rbp
    1930:	48 89 e5             	mov    %rsp,%rbp
    1933:	48 83 ec 20          	sub    $0x20,%rsp
    1937:	48 89 7d f8          	mov    %rdi,-0x8(%rbp)
    193b:	48 89 75 f0          	mov    %rsi,-0x10(%rbp)
    193f:	48 89 55 e8          	mov    %rdx,-0x18(%rbp)
    1943:	48 8b 45 f0          	mov    -0x10(%rbp),%rax
    1947:	48 2b 45 f8          	sub    -0x8(%rbp),%rax
    194b:	48 83 f8 04          	cmp    $0x4,%rax
    194f:	7e 1f                	jle    1970 <_ZSt11__sort_heapIPiN9__gnu_cxx5__ops15_Iter_less_iterEEvT_S4_RT0_+0x45>
    1951:	48 83 6d f0 04       	subq   $0x4,-0x10(%rbp)
    1956:	48 8b 4d e8          	mov    -0x18(%rbp),%rcx
    195a:	48 8b 55 f0          	mov    -0x10(%rbp),%rdx
    195e:	48 8b 75 f0          	mov    -0x10(%rbp),%rsi
    1962:	48 8b 45 f8          	mov    -0x8(%rbp),%rax
    1966:	48 89 c7             	mov    %rax,%rdi
    1969:	e8 b2 03 00 00       	callq  1d20 <_ZSt10__pop_heapIPiN9__gnu_cxx5__ops15_Iter_less_iterEEvT_S4_S4_RT0_>
    196e:	eb d3                	jmp    1943 <_ZSt11__sort_heapIPiN9__gnu_cxx5__ops15_Iter_less_iterEEvT_S4_RT0_+0x18>
    1970:	90                   	nop
    1971:	c9                   	leaveq 
    1972:	c3                   	retq   
    1973:	90                   	nop

0000000000001974 <_ZNK9__gnu_cxx5__ops15_Iter_less_iterclIPiS3_EEbT_T0_>:
    1974:	f3 0f 1e fa          	endbr64 
    1978:	55                   	push   %rbp
    1979:	48 89 e5             	mov    %rsp,%rbp
    197c:	48 89 7d f8          	mov    %rdi,-0x8(%rbp)
    1980:	48 89 75 f0          	mov    %rsi,-0x10(%rbp)
    1984:	48 89 55 e8          	mov    %rdx,-0x18(%rbp)
    1988:	48 8b 45 f0          	mov    -0x10(%rbp),%rax
    198c:	8b 10                	mov    (%rax),%edx
    198e:	48 8b 45 e8          	mov    -0x18(%rbp),%rax
    1992:	8b 00                	mov    (%rax),%eax
    1994:	39 c2                	cmp    %eax,%edx
    1996:	0f 9c c0             	setl   %al
    1999:	5d                   	pop    %rbp
    199a:	c3                   	retq   

000000000000199b <_ZSt22__move_median_to_firstIPiN9__gnu_cxx5__ops15_Iter_less_iterEEvT_S4_S4_S4_T0_>:
    199b:	f3 0f 1e fa          	endbr64 
    199f:	55                   	push   %rbp
    19a0:	48 89 e5             	mov    %rsp,%rbp
    19a3:	48 83 ec 30          	sub    $0x30,%rsp
    19a7:	48 89 7d f8          	mov    %rdi,-0x8(%rbp)
    19ab:	48 89 75 f0          	mov    %rsi,-0x10(%rbp)
    19af:	48 89 55 e8          	mov    %rdx,-0x18(%rbp)
    19b3:	48 89 4d e0          	mov    %rcx,-0x20(%rbp)
    19b7:	48 8b 55 e8          	mov    -0x18(%rbp),%rdx
    19bb:	48 8b 4d f0          	mov    -0x10(%rbp),%rcx
    19bf:	48 8d 45 df          	lea    -0x21(%rbp),%rax
    19c3:	48 89 ce             	mov    %rcx,%rsi
    19c6:	48 89 c7             	mov    %rax,%rdi
    19c9:	e8 a6 ff ff ff       	callq  1974 <_ZNK9__gnu_cxx5__ops15_Iter_less_iterclIPiS3_EEbT_T0_>
    19ce:	84 c0                	test   %al,%al
    19d0:	74 7b                	je     1a4d <_ZSt22__move_median_to_firstIPiN9__gnu_cxx5__ops15_Iter_less_iterEEvT_S4_S4_S4_T0_+0xb2>
    19d2:	48 8b 55 e0          	mov    -0x20(%rbp),%rdx
    19d6:	48 8b 4d e8          	mov    -0x18(%rbp),%rcx
    19da:	48 8d 45 df          	lea    -0x21(%rbp),%rax
    19de:	48 89 ce             	mov    %rcx,%rsi
    19e1:	48 89 c7             	mov    %rax,%rdi
    19e4:	e8 8b ff ff ff       	callq  1974 <_ZNK9__gnu_cxx5__ops15_Iter_less_iterclIPiS3_EEbT_T0_>
    19e9:	84 c0                	test   %al,%al
    19eb:	74 18                	je     1a05 <_ZSt22__move_median_to_firstIPiN9__gnu_cxx5__ops15_Iter_less_iterEEvT_S4_S4_S4_T0_+0x6a>
    19ed:	48 8b 55 e8          	mov    -0x18(%rbp),%rdx
    19f1:	48 8b 45 f8          	mov    -0x8(%rbp),%rax
    19f5:	48 89 d6             	mov    %rdx,%rsi
    19f8:	48 89 c7             	mov    %rax,%rdi
    19fb:	e8 ba 03 00 00       	callq  1dba <_ZSt9iter_swapIPiS0_EvT_T0_>
    1a00:	e9 bb 00 00 00       	jmpq   1ac0 <_ZSt22__move_median_to_firstIPiN9__gnu_cxx5__ops15_Iter_less_iterEEvT_S4_S4_S4_T0_+0x125>
    1a05:	48 8b 55 e0          	mov    -0x20(%rbp),%rdx
    1a09:	48 8b 4d f0          	mov    -0x10(%rbp),%rcx
    1a0d:	48 8d 45 df          	lea    -0x21(%rbp),%rax
    1a11:	48 89 ce             	mov    %rcx,%rsi
    1a14:	48 89 c7             	mov    %rax,%rdi
    1a17:	e8 58 ff ff ff       	callq  1974 <_ZNK9__gnu_cxx5__ops15_Iter_less_iterclIPiS3_EEbT_T0_>
    1a1c:	84 c0                	test   %al,%al
    1a1e:	74 18                	je     1a38 <_ZSt22__move_median_to_firstIPiN9__gnu_cxx5__ops15_Iter_less_iterEEvT_S4_S4_S4_T0_+0x9d>
    1a20:	48 8b 55 e0          	mov    -0x20(%rbp),%rdx
    1a24:	48 8b 45 f8          	mov    -0x8(%rbp),%rax
    1a28:	48 89 d6             	mov    %rdx,%rsi
    1a2b:	48 89 c7             	mov    %rax,%rdi
    1a2e:	e8 87 03 00 00       	callq  1dba <_ZSt9iter_swapIPiS0_EvT_T0_>
    1a33:	e9 88 00 00 00       	jmpq   1ac0 <_ZSt22__move_median_to_firstIPiN9__gnu_cxx5__ops15_Iter_less_iterEEvT_S4_S4_S4_T0_+0x125>
    1a38:	48 8b 55 f0          	mov    -0x10(%rbp),%rdx
    1a3c:	48 8b 45 f8          	mov    -0x8(%rbp),%rax
    1a40:	48 89 d6             	mov    %rdx,%rsi
    1a43:	48 89 c7             	mov    %rax,%rdi
    1a46:	e8 6f 03 00 00       	callq  1dba <_ZSt9iter_swapIPiS0_EvT_T0_>
    1a4b:	eb 73                	jmp    1ac0 <_ZSt22__move_median_to_firstIPiN9__gnu_cxx5__ops15_Iter_less_iterEEvT_S4_S4_S4_T0_+0x125>
    1a4d:	48 8b 55 e0          	mov    -0x20(%rbp),%rdx
    1a51:	48 8b 4d f0          	mov    -0x10(%rbp),%rcx
    1a55:	48 8d 45 df          	lea    -0x21(%rbp),%rax
    1a59:	48 89 ce             	mov    %rcx,%rsi
    1a5c:	48 89 c7             	mov    %rax,%rdi
    1a5f:	e8 10 ff ff ff       	callq  1974 <_ZNK9__gnu_cxx5__ops15_Iter_less_iterclIPiS3_EEbT_T0_>
    1a64:	84 c0                	test   %al,%al
    1a66:	74 15                	je     1a7d <_ZSt22__move_median_to_firstIPiN9__gnu_cxx5__ops15_Iter_less_iterEEvT_S4_S4_S4_T0_+0xe2>
    1a68:	48 8b 55 f0          	mov    -0x10(%rbp),%rdx
    1a6c:	48 8b 45 f8          	mov    -0x8(%rbp),%rax
    1a70:	48 89 d6             	mov    %rdx,%rsi
    1a73:	48 89 c7             	mov    %rax,%rdi
    1a76:	e8 3f 03 00 00       	callq  1dba <_ZSt9iter_swapIPiS0_EvT_T0_>
    1a7b:	eb 43                	jmp    1ac0 <_ZSt22__move_median_to_firstIPiN9__gnu_cxx5__ops15_Iter_less_iterEEvT_S4_S4_S4_T0_+0x125>
    1a7d:	48 8b 55 e0          	mov    -0x20(%rbp),%rdx
    1a81:	48 8b 4d e8          	mov    -0x18(%rbp),%rcx
    1a85:	48 8d 45 df          	lea    -0x21(%rbp),%rax
    1a89:	48 89 ce             	mov    %rcx,%rsi
    1a8c:	48 89 c7             	mov    %rax,%rdi
    1a8f:	e8 e0 fe ff ff       	callq  1974 <_ZNK9__gnu_cxx5__ops15_Iter_less_iterclIPiS3_EEbT_T0_>
    1a94:	84 c0                	test   %al,%al
    1a96:	74 15                	je     1aad <_ZSt22__move_median_to_firstIPiN9__gnu_cxx5__ops15_Iter_less_iterEEvT_S4_S4_S4_T0_+0x112>
    1a98:	48 8b 55 e0          	mov    -0x20(%rbp),%rdx
    1a9c:	48 8b 45 f8          	mov    -0x8(%rbp),%rax
    1aa0:	48 89 d6             	mov    %rdx,%rsi
    1aa3:	48 89 c7             	mov    %rax,%rdi
    1aa6:	e8 0f 03 00 00       	callq  1dba <_ZSt9iter_swapIPiS0_EvT_T0_>
    1aab:	eb 13                	jmp    1ac0 <_ZSt22__move_median_to_firstIPiN9__gnu_cxx5__ops15_Iter_less_iterEEvT_S4_S4_S4_T0_+0x125>
    1aad:	48 8b 55 e8          	mov    -0x18(%rbp),%rdx
    1ab1:	48 8b 45 f8          	mov    -0x8(%rbp),%rax
    1ab5:	48 89 d6             	mov    %rdx,%rsi
    1ab8:	48 89 c7             	mov    %rax,%rdi
    1abb:	e8 fa 02 00 00       	callq  1dba <_ZSt9iter_swapIPiS0_EvT_T0_>
    1ac0:	90                   	nop
    1ac1:	c9                   	leaveq 
    1ac2:	c3                   	retq   

0000000000001ac3 <_ZSt21__unguarded_partitionIPiN9__gnu_cxx5__ops15_Iter_less_iterEET_S4_S4_S4_T0_>:
    1ac3:	f3 0f 1e fa          	endbr64 
    1ac7:	55                   	push   %rbp
    1ac8:	48 89 e5             	mov    %rsp,%rbp
    1acb:	48 83 ec 20          	sub    $0x20,%rsp
    1acf:	48 89 7d f8          	mov    %rdi,-0x8(%rbp)
    1ad3:	48 89 75 f0          	mov    %rsi,-0x10(%rbp)
    1ad7:	48 89 55 e8          	mov    %rdx,-0x18(%rbp)
    1adb:	48 8b 55 e8          	mov    -0x18(%rbp),%rdx
    1adf:	48 8b 4d f8          	mov    -0x8(%rbp),%rcx
    1ae3:	48 8d 45 e7          	lea    -0x19(%rbp),%rax
    1ae7:	48 89 ce             	mov    %rcx,%rsi
    1aea:	48 89 c7             	mov    %rax,%rdi
    1aed:	e8 82 fe ff ff       	callq  1974 <_ZNK9__gnu_cxx5__ops15_Iter_less_iterclIPiS3_EEbT_T0_>
    1af2:	84 c0                	test   %al,%al
    1af4:	74 07                	je     1afd <_ZSt21__unguarded_partitionIPiN9__gnu_cxx5__ops15_Iter_less_iterEET_S4_S4_S4_T0_+0x3a>
    1af6:	48 83 45 f8 04       	addq   $0x4,-0x8(%rbp)
    1afb:	eb de                	jmp    1adb <_ZSt21__unguarded_partitionIPiN9__gnu_cxx5__ops15_Iter_less_iterEET_S4_S4_S4_T0_+0x18>
    1afd:	48 83 6d f0 04       	subq   $0x4,-0x10(%rbp)
    1b02:	48 8b 55 f0          	mov    -0x10(%rbp),%rdx
    1b06:	48 8b 4d e8          	mov    -0x18(%rbp),%rcx
    1b0a:	48 8d 45 e7          	lea    -0x19(%rbp),%rax
    1b0e:	48 89 ce             	mov    %rcx,%rsi
    1b11:	48 89 c7             	mov    %rax,%rdi
    1b14:	e8 5b fe ff ff       	callq  1974 <_ZNK9__gnu_cxx5__ops15_Iter_less_iterclIPiS3_EEbT_T0_>
    1b19:	84 c0                	test   %al,%al
    1b1b:	74 07                	je     1b24 <_ZSt21__unguarded_partitionIPiN9__gnu_cxx5__ops15_Iter_less_iterEET_S4_S4_S4_T0_+0x61>
    1b1d:	48 83 6d f0 04       	subq   $0x4,-0x10(%rbp)
    1b22:	eb de                	jmp    1b02 <_ZSt21__unguarded_partitionIPiN9__gnu_cxx5__ops15_Iter_less_iterEET_S4_S4_S4_T0_+0x3f>
    1b24:	48 8b 45 f8          	mov    -0x8(%rbp),%rax
    1b28:	48 3b 45 f0          	cmp    -0x10(%rbp),%rax
    1b2c:	72 06                	jb     1b34 <_ZSt21__unguarded_partitionIPiN9__gnu_cxx5__ops15_Iter_less_iterEET_S4_S4_S4_T0_+0x71>
    1b2e:	48 8b 45 f8          	mov    -0x8(%rbp),%rax
    1b32:	eb 1a                	jmp    1b4e <_ZSt21__unguarded_partitionIPiN9__gnu_cxx5__ops15_Iter_less_iterEET_S4_S4_S4_T0_+0x8b>
    1b34:	48 8b 55 f0          	mov    -0x10(%rbp),%rdx
    1b38:	48 8b 45 f8          	mov    -0x8(%rbp),%rax
    1b3c:	48 89 d6             	mov    %rdx,%rsi
    1b3f:	48 89 c7             	mov    %rax,%rdi
    1b42:	e8 73 02 00 00       	callq  1dba <_ZSt9iter_swapIPiS0_EvT_T0_>
    1b47:	48 83 45 f8 04       	addq   $0x4,-0x8(%rbp)
    1b4c:	eb 8d                	jmp    1adb <_ZSt21__unguarded_partitionIPiN9__gnu_cxx5__ops15_Iter_less_iterEET_S4_S4_S4_T0_+0x18>
    1b4e:	c9                   	leaveq 
    1b4f:	c3                   	retq   

0000000000001b50 <_ZSt4moveIRiEONSt16remove_referenceIT_E4typeEOS2_>:
    1b50:	f3 0f 1e fa          	endbr64 
    1b54:	55                   	push   %rbp
    1b55:	48 89 e5             	mov    %rsp,%rbp
    1b58:	48 89 7d f8          	mov    %rdi,-0x8(%rbp)
    1b5c:	48 8b 45 f8          	mov    -0x8(%rbp),%rax
    1b60:	5d                   	pop    %rbp
    1b61:	c3                   	retq   

0000000000001b62 <_ZSt13move_backwardIPiS0_ET0_T_S2_S1_>:
    1b62:	f3 0f 1e fa          	endbr64 
    1b66:	55                   	push   %rbp
    1b67:	48 89 e5             	mov    %rsp,%rbp
    1b6a:	53                   	push   %rbx
    1b6b:	48 83 ec 28          	sub    $0x28,%rsp
    1b6f:	48 89 7d e8          	mov    %rdi,-0x18(%rbp)
    1b73:	48 89 75 e0          	mov    %rsi,-0x20(%rbp)
    1b77:	48 89 55 d8          	mov    %rdx,-0x28(%rbp)
    1b7b:	48 8b 45 e0          	mov    -0x20(%rbp),%rax
    1b7f:	48 89 c7             	mov    %rax,%rdi
    1b82:	e8 5d 02 00 00       	callq  1de4 <_ZSt12__miter_baseIPiET_S1_>
    1b87:	48 89 c3             	mov    %rax,%rbx
    1b8a:	48 8b 45 e8          	mov    -0x18(%rbp),%rax
    1b8e:	48 89 c7             	mov    %rax,%rdi
    1b91:	e8 4e 02 00 00       	callq  1de4 <_ZSt12__miter_baseIPiET_S1_>
    1b96:	48 89 c1             	mov    %rax,%rcx
    1b99:	48 8b 45 d8          	mov    -0x28(%rbp),%rax
    1b9d:	48 89 c2             	mov    %rax,%rdx
    1ba0:	48 89 de             	mov    %rbx,%rsi
    1ba3:	48 89 cf             	mov    %rcx,%rdi
    1ba6:	e8 4b 02 00 00       	callq  1df6 <_ZSt23__copy_move_backward_a2ILb1EPiS0_ET1_T0_S2_S1_>
    1bab:	48 83 c4 28          	add    $0x28,%rsp
    1baf:	5b                   	pop    %rbx
    1bb0:	5d                   	pop    %rbp
    1bb1:	c3                   	retq   

0000000000001bb2 <_ZSt25__unguarded_linear_insertIPiN9__gnu_cxx5__ops14_Val_less_iterEEvT_T0_>:
    1bb2:	f3 0f 1e fa          	endbr64 
    1bb6:	55                   	push   %rbp
    1bb7:	48 89 e5             	mov    %rsp,%rbp
    1bba:	48 83 ec 30          	sub    $0x30,%rsp
    1bbe:	48 89 7d d8          	mov    %rdi,-0x28(%rbp)
    1bc2:	64 48 8b 04 25 28 00 	mov    %fs:0x28,%rax
    1bc9:	00 00 
    1bcb:	48 89 45 f8          	mov    %rax,-0x8(%rbp)
    1bcf:	31 c0                	xor    %eax,%eax
    1bd1:	48 8b 45 d8          	mov    -0x28(%rbp),%rax
    1bd5:	48 89 c7             	mov    %rax,%rdi
    1bd8:	e8 73 ff ff ff       	callq  1b50 <_ZSt4moveIRiEONSt16remove_referenceIT_E4typeEOS2_>
    1bdd:	8b 00                	mov    (%rax),%eax
    1bdf:	89 45 ec             	mov    %eax,-0x14(%rbp)
    1be2:	48 8b 45 d8          	mov    -0x28(%rbp),%rax
    1be6:	48 89 45 f0          	mov    %rax,-0x10(%rbp)
    1bea:	48 83 6d f0 04       	subq   $0x4,-0x10(%rbp)
    1bef:	48 8b 55 f0          	mov    -0x10(%rbp),%rdx
    1bf3:	48 8d 4d ec          	lea    -0x14(%rbp),%rcx
    1bf7:	48 8d 45 d7          	lea    -0x29(%rbp),%rax
    1bfb:	48 89 ce             	mov    %rcx,%rsi
    1bfe:	48 89 c7             	mov    %rax,%rdi
    1c01:	e8 5e 02 00 00       	callq  1e64 <_ZNK9__gnu_cxx5__ops14_Val_less_iterclIiPiEEbRT_T0_>
    1c06:	84 c0                	test   %al,%al
    1c08:	74 23                	je     1c2d <_ZSt25__unguarded_linear_insertIPiN9__gnu_cxx5__ops14_Val_less_iterEEvT_T0_+0x7b>
    1c0a:	48 8b 45 f0          	mov    -0x10(%rbp),%rax
    1c0e:	48 89 c7             	mov    %rax,%rdi
    1c11:	e8 3a ff ff ff       	callq  1b50 <_ZSt4moveIRiEONSt16remove_referenceIT_E4typeEOS2_>
    1c16:	8b 10                	mov    (%rax),%edx
    1c18:	48 8b 45 d8          	mov    -0x28(%rbp),%rax
    1c1c:	89 10                	mov    %edx,(%rax)
    1c1e:	48 8b 45 f0          	mov    -0x10(%rbp),%rax
    1c22:	48 89 45 d8          	mov    %rax,-0x28(%rbp)
    1c26:	48 83 6d f0 04       	subq   $0x4,-0x10(%rbp)
    1c2b:	eb c2                	jmp    1bef <_ZSt25__unguarded_linear_insertIPiN9__gnu_cxx5__ops14_Val_less_iterEEvT_T0_+0x3d>
    1c2d:	48 8d 45 ec          	lea    -0x14(%rbp),%rax
    1c31:	48 89 c7             	mov    %rax,%rdi
    1c34:	e8 17 ff ff ff       	callq  1b50 <_ZSt4moveIRiEONSt16remove_referenceIT_E4typeEOS2_>
    1c39:	8b 10                	mov    (%rax),%edx
    1c3b:	48 8b 45 d8          	mov    -0x28(%rbp),%rax
    1c3f:	89 10                	mov    %edx,(%rax)
    1c41:	90                   	nop
    1c42:	48 8b 45 f8          	mov    -0x8(%rbp),%rax
    1c46:	64 48 33 04 25 28 00 	xor    %fs:0x28,%rax
    1c4d:	00 00 
    1c4f:	74 05                	je     1c56 <_ZSt25__unguarded_linear_insertIPiN9__gnu_cxx5__ops14_Val_less_iterEEvT_T0_+0xa4>
    1c51:	e8 ca f4 ff ff       	callq  1120 <__stack_chk_fail@plt>
    1c56:	c9                   	leaveq 
    1c57:	c3                   	retq   

0000000000001c58 <_ZSt11__make_heapIPiN9__gnu_cxx5__ops15_Iter_less_iterEEvT_S4_RT0_>:
    1c58:	f3 0f 1e fa          	endbr64 
    1c5c:	55                   	push   %rbp
    1c5d:	48 89 e5             	mov    %rsp,%rbp
    1c60:	48 83 ec 40          	sub    $0x40,%rsp
    1c64:	48 89 7d d8          	mov    %rdi,-0x28(%rbp)
    1c68:	48 89 75 d0          	mov    %rsi,-0x30(%rbp)
    1c6c:	48 89 55 c8          	mov    %rdx,-0x38(%rbp)
    1c70:	64 48 8b 04 25 28 00 	mov    %fs:0x28,%rax
    1c77:	00 00 
    1c79:	48 89 45 f8          	mov    %rax,-0x8(%rbp)
    1c7d:	31 c0                	xor    %eax,%eax
    1c7f:	48 8b 45 d0          	mov    -0x30(%rbp),%rax
    1c83:	48 2b 45 d8          	sub    -0x28(%rbp),%rax
    1c87:	48 83 f8 04          	cmp    $0x4,%rax
    1c8b:	7e 79                	jle    1d06 <_ZSt11__make_heapIPiN9__gnu_cxx5__ops15_Iter_less_iterEEvT_S4_RT0_+0xae>
    1c8d:	48 8b 45 d0          	mov    -0x30(%rbp),%rax
    1c91:	48 2b 45 d8          	sub    -0x28(%rbp),%rax
    1c95:	48 c1 f8 02          	sar    $0x2,%rax
    1c99:	48 89 45 f0          	mov    %rax,-0x10(%rbp)
    1c9d:	48 8b 45 f0          	mov    -0x10(%rbp),%rax
    1ca1:	48 83 e8 02          	sub    $0x2,%rax
    1ca5:	48 89 c2             	mov    %rax,%rdx
    1ca8:	48 c1 ea 3f          	shr    $0x3f,%rdx
    1cac:	48 01 d0             	add    %rdx,%rax
    1caf:	48 d1 f8             	sar    %rax
    1cb2:	48 89 45 e8          	mov    %rax,-0x18(%rbp)
    1cb6:	48 8b 45 e8          	mov    -0x18(%rbp),%rax
    1cba:	48 8d 14 85 00 00 00 	lea    0x0(,%rax,4),%rdx
    1cc1:	00 
    1cc2:	48 8b 45 d8          	mov    -0x28(%rbp),%rax
    1cc6:	48 01 d0             	add    %rdx,%rax
    1cc9:	48 89 c7             	mov    %rax,%rdi
    1ccc:	e8 7f fe ff ff       	callq  1b50 <_ZSt4moveIRiEONSt16remove_referenceIT_E4typeEOS2_>
    1cd1:	8b 00                	mov    (%rax),%eax
    1cd3:	89 45 e4             	mov    %eax,-0x1c(%rbp)
    1cd6:	48 8d 45 e4          	lea    -0x1c(%rbp),%rax
    1cda:	48 89 c7             	mov    %rax,%rdi
    1cdd:	e8 6e fe ff ff       	callq  1b50 <_ZSt4moveIRiEONSt16remove_referenceIT_E4typeEOS2_>
    1ce2:	8b 08                	mov    (%rax),%ecx
    1ce4:	48 8b 55 f0          	mov    -0x10(%rbp),%rdx
    1ce8:	48 8b 75 e8          	mov    -0x18(%rbp),%rsi
    1cec:	48 8b 45 d8          	mov    -0x28(%rbp),%rax
    1cf0:	48 89 c7             	mov    %rax,%rdi
    1cf3:	e8 93 01 00 00       	callq  1e8b <_ZSt13__adjust_heapIPiliN9__gnu_cxx5__ops15_Iter_less_iterEEvT_T0_S5_T1_T2_>
    1cf8:	48 83 7d e8 00       	cmpq   $0x0,-0x18(%rbp)
    1cfd:	74 0a                	je     1d09 <_ZSt11__make_heapIPiN9__gnu_cxx5__ops15_Iter_less_iterEEvT_S4_RT0_+0xb1>
    1cff:	48 83 6d e8 01       	subq   $0x1,-0x18(%rbp)
    1d04:	eb b0                	jmp    1cb6 <_ZSt11__make_heapIPiN9__gnu_cxx5__ops15_Iter_less_iterEEvT_S4_RT0_+0x5e>
    1d06:	90                   	nop
    1d07:	eb 01                	jmp    1d0a <_ZSt11__make_heapIPiN9__gnu_cxx5__ops15_Iter_less_iterEEvT_S4_RT0_+0xb2>
    1d09:	90                   	nop
    1d0a:	48 8b 45 f8          	mov    -0x8(%rbp),%rax
    1d0e:	64 48 33 04 25 28 00 	xor    %fs:0x28,%rax
    1d15:	00 00 
    1d17:	74 05                	je     1d1e <_ZSt11__make_heapIPiN9__gnu_cxx5__ops15_Iter_less_iterEEvT_S4_RT0_+0xc6>
    1d19:	e8 02 f4 ff ff       	callq  1120 <__stack_chk_fail@plt>
    1d1e:	c9                   	leaveq 
    1d1f:	c3                   	retq   

0000000000001d20 <_ZSt10__pop_heapIPiN9__gnu_cxx5__ops15_Iter_less_iterEEvT_S4_S4_RT0_>:
    1d20:	f3 0f 1e fa          	endbr64 
    1d24:	55                   	push   %rbp
    1d25:	48 89 e5             	mov    %rsp,%rbp
    1d28:	48 83 ec 30          	sub    $0x30,%rsp
    1d2c:	48 89 7d e8          	mov    %rdi,-0x18(%rbp)
    1d30:	48 89 75 e0          	mov    %rsi,-0x20(%rbp)
    1d34:	48 89 55 d8          	mov    %rdx,-0x28(%rbp)
    1d38:	48 89 4d d0          	mov    %rcx,-0x30(%rbp)
    1d3c:	64 48 8b 04 25 28 00 	mov    %fs:0x28,%rax
    1d43:	00 00 
    1d45:	48 89 45 f8          	mov    %rax,-0x8(%rbp)
    1d49:	31 c0                	xor    %eax,%eax
    1d4b:	48 8b 45 d8          	mov    -0x28(%rbp),%rax
    1d4f:	48 89 c7             	mov    %rax,%rdi
    1d52:	e8 f9 fd ff ff       	callq  1b50 <_ZSt4moveIRiEONSt16remove_referenceIT_E4typeEOS2_>
    1d57:	8b 00                	mov    (%rax),%eax
    1d59:	89 45 f4             	mov    %eax,-0xc(%rbp)
    1d5c:	48 8b 45 e8          	mov    -0x18(%rbp),%rax
    1d60:	48 89 c7             	mov    %rax,%rdi
    1d63:	e8 e8 fd ff ff       	callq  1b50 <_ZSt4moveIRiEONSt16remove_referenceIT_E4typeEOS2_>
    1d68:	8b 10                	mov    (%rax),%edx
    1d6a:	48 8b 45 d8          	mov    -0x28(%rbp),%rax
    1d6e:	89 10                	mov    %edx,(%rax)
    1d70:	48 8d 45 f4          	lea    -0xc(%rbp),%rax
    1d74:	48 89 c7             	mov    %rax,%rdi
    1d77:	e8 d4 fd ff ff       	callq  1b50 <_ZSt4moveIRiEONSt16remove_referenceIT_E4typeEOS2_>
    1d7c:	8b 10                	mov    (%rax),%edx
    1d7e:	48 8b 45 e0          	mov    -0x20(%rbp),%rax
    1d82:	48 2b 45 e8          	sub    -0x18(%rbp),%rax
    1d86:	48 c1 f8 02          	sar    $0x2,%rax
    1d8a:	48 89 c6             	mov    %rax,%rsi
    1d8d:	48 8b 45 e8          	mov    -0x18(%rbp),%rax
    1d91:	89 d1                	mov    %edx,%ecx
    1d93:	48 89 f2             	mov    %rsi,%rdx
    1d96:	be 00 00 00 00       	mov    $0x0,%esi
    1d9b:	48 89 c7             	mov    %rax,%rdi
    1d9e:	e8 e8 00 00 00       	callq  1e8b <_ZSt13__adjust_heapIPiliN9__gnu_cxx5__ops15_Iter_less_iterEEvT_T0_S5_T1_T2_>
    1da3:	90                   	nop
    1da4:	48 8b 45 f8          	mov    -0x8(%rbp),%rax
    1da8:	64 48 33 04 25 28 00 	xor    %fs:0x28,%rax
    1daf:	00 00 
    1db1:	74 05                	je     1db8 <_ZSt10__pop_heapIPiN9__gnu_cxx5__ops15_Iter_less_iterEEvT_S4_S4_RT0_+0x98>
    1db3:	e8 68 f3 ff ff       	callq  1120 <__stack_chk_fail@plt>
    1db8:	c9                   	leaveq 
    1db9:	c3                   	retq   

0000000000001dba <_ZSt9iter_swapIPiS0_EvT_T0_>:
    1dba:	f3 0f 1e fa          	endbr64 
    1dbe:	55                   	push   %rbp
    1dbf:	48 89 e5             	mov    %rsp,%rbp
    1dc2:	48 83 ec 10          	sub    $0x10,%rsp
    1dc6:	48 89 7d f8          	mov    %rdi,-0x8(%rbp)
    1dca:	48 89 75 f0          	mov    %rsi,-0x10(%rbp)
    1dce:	48 8b 55 f0          	mov    -0x10(%rbp),%rdx
    1dd2:	48 8b 45 f8          	mov    -0x8(%rbp),%rax
    1dd6:	48 89 d6             	mov    %rdx,%rsi
    1dd9:	48 89 c7             	mov    %rax,%rdi
    1ddc:	e8 5b 02 00 00       	callq  203c <_ZSt4swapIiENSt9enable_ifIXsrSt6__and_IJSt6__not_ISt15__is_tuple_likeIT_EESt21is_move_constructibleIS4_ESt18is_move_assignableIS4_EEE5valueEvE4typeERS4_SE_>
    1de1:	90                   	nop
    1de2:	c9                   	leaveq 
    1de3:	c3                   	retq   

0000000000001de4 <_ZSt12__miter_baseIPiET_S1_>:
    1de4:	f3 0f 1e fa          	endbr64 
    1de8:	55                   	push   %rbp
    1de9:	48 89 e5             	mov    %rsp,%rbp
    1dec:	48 89 7d f8          	mov    %rdi,-0x8(%rbp)
    1df0:	48 8b 45 f8          	mov    -0x8(%rbp),%rax
    1df4:	5d                   	pop    %rbp
    1df5:	c3                   	retq   

0000000000001df6 <_ZSt23__copy_move_backward_a2ILb1EPiS0_ET1_T0_S2_S1_>:
    1df6:	f3 0f 1e fa          	endbr64 
    1dfa:	55                   	push   %rbp
    1dfb:	48 89 e5             	mov    %rsp,%rbp
    1dfe:	41 54                	push   %r12
    1e00:	53                   	push   %rbx
    1e01:	48 83 ec 20          	sub    $0x20,%rsp
    1e05:	48 89 7d e8          	mov    %rdi,-0x18(%rbp)
    1e09:	48 89 75 e0          	mov    %rsi,-0x20(%rbp)
    1e0d:	48 89 55 d8          	mov    %rdx,-0x28(%rbp)
    1e11:	48 8b 45 d8          	mov    -0x28(%rbp),%rax
    1e15:	48 89 c7             	mov    %rax,%rdi
    1e18:	e8 92 02 00 00       	callq  20af <_ZSt12__niter_baseIPiET_S1_>
    1e1d:	49 89 c4             	mov    %rax,%r12
    1e20:	48 8b 45 e0          	mov    -0x20(%rbp),%rax
    1e24:	48 89 c7             	mov    %rax,%rdi
    1e27:	e8 83 02 00 00       	callq  20af <_ZSt12__niter_baseIPiET_S1_>
    1e2c:	48 89 c3             	mov    %rax,%rbx
    1e2f:	48 8b 45 e8          	mov    -0x18(%rbp),%rax
    1e33:	48 89 c7             	mov    %rax,%rdi
    1e36:	e8 74 02 00 00       	callq  20af <_ZSt12__niter_baseIPiET_S1_>
    1e3b:	4c 89 e2             	mov    %r12,%rdx
    1e3e:	48 89 de             	mov    %rbx,%rsi
    1e41:	48 89 c7             	mov    %rax,%rdi
    1e44:	e8 78 02 00 00       	callq  20c1 <_ZSt22__copy_move_backward_aILb1EPiS0_ET1_T0_S2_S1_>
    1e49:	48 89 c2             	mov    %rax,%rdx
    1e4c:	48 8d 45 d8          	lea    -0x28(%rbp),%rax
    1e50:	48 89 d6             	mov    %rdx,%rsi
    1e53:	48 89 c7             	mov    %rax,%rdi
    1e56:	e8 9b 02 00 00       	callq  20f6 <_ZSt12__niter_wrapIPiET_RKS1_S1_>
    1e5b:	48 83 c4 20          	add    $0x20,%rsp
    1e5f:	5b                   	pop    %rbx
    1e60:	41 5c                	pop    %r12
    1e62:	5d                   	pop    %rbp
    1e63:	c3                   	retq   

0000000000001e64 <_ZNK9__gnu_cxx5__ops14_Val_less_iterclIiPiEEbRT_T0_>:
    1e64:	f3 0f 1e fa          	endbr64 
    1e68:	55                   	push   %rbp
    1e69:	48 89 e5             	mov    %rsp,%rbp
    1e6c:	48 89 7d f8          	mov    %rdi,-0x8(%rbp)
    1e70:	48 89 75 f0          	mov    %rsi,-0x10(%rbp)
    1e74:	48 89 55 e8          	mov    %rdx,-0x18(%rbp)
    1e78:	48 8b 45 f0          	mov    -0x10(%rbp),%rax
    1e7c:	8b 10                	mov    (%rax),%edx
    1e7e:	48 8b 45 e8          	mov    -0x18(%rbp),%rax
    1e82:	8b 00                	mov    (%rax),%eax
    1e84:	39 c2                	cmp    %eax,%edx
    1e86:	0f 9c c0             	setl   %al
    1e89:	5d                   	pop    %rbp
    1e8a:	c3                   	retq   

0000000000001e8b <_ZSt13__adjust_heapIPiliN9__gnu_cxx5__ops15_Iter_less_iterEEvT_T0_S5_T1_T2_>:
    1e8b:	f3 0f 1e fa          	endbr64 
    1e8f:	55                   	push   %rbp
    1e90:	48 89 e5             	mov    %rsp,%rbp
    1e93:	48 83 ec 40          	sub    $0x40,%rsp
    1e97:	48 89 7d d8          	mov    %rdi,-0x28(%rbp)
    1e9b:	48 89 75 d0          	mov    %rsi,-0x30(%rbp)
    1e9f:	48 89 55 c8          	mov    %rdx,-0x38(%rbp)
    1ea3:	89 4d c4             	mov    %ecx,-0x3c(%rbp)
    1ea6:	64 48 8b 04 25 28 00 	mov    %fs:0x28,%rax
    1ead:	00 00 
    1eaf:	48 89 45 f8          	mov    %rax,-0x8(%rbp)
    1eb3:	31 c0                	xor    %eax,%eax
    1eb5:	48 8b 45 d0          	mov    -0x30(%rbp),%rax
    1eb9:	48 89 45 f0          	mov    %rax,-0x10(%rbp)
    1ebd:	48 8b 45 d0          	mov    -0x30(%rbp),%rax
    1ec1:	48 89 45 e8          	mov    %rax,-0x18(%rbp)
    1ec5:	48 8b 45 c8          	mov    -0x38(%rbp),%rax
    1ec9:	48 83 e8 01          	sub    $0x1,%rax
    1ecd:	48 89 c2             	mov    %rax,%rdx
    1ed0:	48 c1 ea 3f          	shr    $0x3f,%rdx
    1ed4:	48 01 d0             	add    %rdx,%rax
    1ed7:	48 d1 f8             	sar    %rax
    1eda:	48 39 45 e8          	cmp    %rax,-0x18(%rbp)
    1ede:	0f 8d 8c 00 00 00    	jge    1f70 <_ZSt13__adjust_heapIPiliN9__gnu_cxx5__ops15_Iter_less_iterEEvT_T0_S5_T1_T2_+0xe5>
    1ee4:	48 8b 45 e8          	mov    -0x18(%rbp),%rax
    1ee8:	48 83 c0 01          	add    $0x1,%rax
    1eec:	48 01 c0             	add    %rax,%rax
    1eef:	48 89 45 e8          	mov    %rax,-0x18(%rbp)
    1ef3:	48 8b 45 e8          	mov    -0x18(%rbp),%rax
    1ef7:	48 c1 e0 02          	shl    $0x2,%rax
    1efb:	48 8d 50 fc          	lea    -0x4(%rax),%rdx
    1eff:	48 8b 45 d8          	mov    -0x28(%rbp),%rax
    1f03:	48 01 c2             	add    %rax,%rdx
    1f06:	48 8b 45 e8          	mov    -0x18(%rbp),%rax
    1f0a:	48 8d 0c 85 00 00 00 	lea    0x0(,%rax,4),%rcx
    1f11:	00 
    1f12:	48 8b 45 d8          	mov    -0x28(%rbp),%rax
    1f16:	48 01 c1             	add    %rax,%rcx
    1f19:	48 8d 45 c3          	lea    -0x3d(%rbp),%rax
    1f1d:	48 89 ce             	mov    %rcx,%rsi
    1f20:	48 89 c7             	mov    %rax,%rdi
    1f23:	e8 4c fa ff ff       	callq  1974 <_ZNK9__gnu_cxx5__ops15_Iter_less_iterclIPiS3_EEbT_T0_>
    1f28:	84 c0                	test   %al,%al
    1f2a:	74 05                	je     1f31 <_ZSt13__adjust_heapIPiliN9__gnu_cxx5__ops15_Iter_less_iterEEvT_T0_S5_T1_T2_+0xa6>
    1f2c:	48 83 6d e8 01       	subq   $0x1,-0x18(%rbp)
    1f31:	48 8b 45 e8          	mov    -0x18(%rbp),%rax
    1f35:	48 8d 14 85 00 00 00 	lea    0x0(,%rax,4),%rdx
    1f3c:	00 
    1f3d:	48 8b 45 d8          	mov    -0x28(%rbp),%rax
    1f41:	48 01 d0             	add    %rdx,%rax
    1f44:	48 89 c7             	mov    %rax,%rdi
    1f47:	e8 04 fc ff ff       	callq  1b50 <_ZSt4moveIRiEONSt16remove_referenceIT_E4typeEOS2_>
    1f4c:	48 8b 55 d0          	mov    -0x30(%rbp),%rdx
    1f50:	48 8d 0c 95 00 00 00 	lea    0x0(,%rdx,4),%rcx
    1f57:	00 
    1f58:	48 8b 55 d8          	mov    -0x28(%rbp),%rdx
    1f5c:	48 01 ca             	add    %rcx,%rdx
    1f5f:	8b 00                	mov    (%rax),%eax
    1f61:	89 02                	mov    %eax,(%rdx)
    1f63:	48 8b 45 e8          	mov    -0x18(%rbp),%rax
    1f67:	48 89 45 d0          	mov    %rax,-0x30(%rbp)
    1f6b:	e9 55 ff ff ff       	jmpq   1ec5 <_ZSt13__adjust_heapIPiliN9__gnu_cxx5__ops15_Iter_less_iterEEvT_T0_S5_T1_T2_+0x3a>
    1f70:	48 8b 45 c8          	mov    -0x38(%rbp),%rax
    1f74:	83 e0 01             	and    $0x1,%eax
    1f77:	48 85 c0             	test   %rax,%rax
    1f7a:	75 68                	jne    1fe4 <_ZSt13__adjust_heapIPiliN9__gnu_cxx5__ops15_Iter_less_iterEEvT_T0_S5_T1_T2_+0x159>
    1f7c:	48 8b 45 c8          	mov    -0x38(%rbp),%rax
    1f80:	48 83 e8 02          	sub    $0x2,%rax
    1f84:	48 89 c2             	mov    %rax,%rdx
    1f87:	48 c1 ea 3f          	shr    $0x3f,%rdx
    1f8b:	48 01 d0             	add    %rdx,%rax
    1f8e:	48 d1 f8             	sar    %rax
    1f91:	48 39 45 e8          	cmp    %rax,-0x18(%rbp)
    1f95:	75 4d                	jne    1fe4 <_ZSt13__adjust_heapIPiliN9__gnu_cxx5__ops15_Iter_less_iterEEvT_T0_S5_T1_T2_+0x159>
    1f97:	48 8b 45 e8          	mov    -0x18(%rbp),%rax
    1f9b:	48 83 c0 01          	add    $0x1,%rax
    1f9f:	48 01 c0             	add    %rax,%rax
    1fa2:	48 89 45 e8          	mov    %rax,-0x18(%rbp)
    1fa6:	48 8b 45 e8          	mov    -0x18(%rbp),%rax
    1faa:	48 c1 e0 02          	shl    $0x2,%rax
    1fae:	48 8d 50 fc          	lea    -0x4(%rax),%rdx
    1fb2:	48 8b 45 d8          	mov    -0x28(%rbp),%rax
    1fb6:	48 01 d0             	add    %rdx,%rax
    1fb9:	48 89 c7             	mov    %rax,%rdi
    1fbc:	e8 8f fb ff ff       	callq  1b50 <_ZSt4moveIRiEONSt16remove_referenceIT_E4typeEOS2_>
    1fc1:	48 8b 55 d0          	mov    -0x30(%rbp),%rdx
    1fc5:	48 8d 0c 95 00 00 00 	lea    0x0(,%rdx,4),%rcx
    1fcc:	00 
    1fcd:	48 8b 55 d8          	mov    -0x28(%rbp),%rdx
    1fd1:	48 01 ca             	add    %rcx,%rdx
    1fd4:	8b 00                	mov    (%rax),%eax
    1fd6:	89 02                	mov    %eax,(%rdx)
    1fd8:	48 8b 45 e8          	mov    -0x18(%rbp),%rax
    1fdc:	48 83 e8 01          	sub    $0x1,%rax
    1fe0:	48 89 45 d0          	mov    %rax,-0x30(%rbp)
    1fe4:	48 8d 45 c3          	lea    -0x3d(%rbp),%rax
    1fe8:	48 89 c7             	mov    %rax,%rdi
    1feb:	e8 1c 01 00 00       	callq  210c <_ZSt4moveIRN9__gnu_cxx5__ops15_Iter_less_iterEEONSt16remove_referenceIT_E4typeEOS5_>
    1ff0:	48 8d 45 e7          	lea    -0x19(%rbp),%rax
    1ff4:	48 89 c7             	mov    %rax,%rdi
    1ff7:	e8 d8 f4 ff ff       	callq  14d4 <_ZN9__gnu_cxx5__ops14_Iter_less_valC1ENS0_15_Iter_less_iterE>
    1ffc:	48 8d 45 c4          	lea    -0x3c(%rbp),%rax
    2000:	48 89 c7             	mov    %rax,%rdi
    2003:	e8 48 fb ff ff       	callq  1b50 <_ZSt4moveIRiEONSt16remove_referenceIT_E4typeEOS2_>
    2008:	8b 08                	mov    (%rax),%ecx
    200a:	48 8d 7d e7          	lea    -0x19(%rbp),%rdi
    200e:	48 8b 55 f0          	mov    -0x10(%rbp),%rdx
    2012:	48 8b 75 d0          	mov    -0x30(%rbp),%rsi
    2016:	48 8b 45 d8          	mov    -0x28(%rbp),%rax
    201a:	49 89 f8             	mov    %rdi,%r8
    201d:	48 89 c7             	mov    %rax,%rdi
    2020:	e8 f9 00 00 00       	callq  211e <_ZSt11__push_heapIPiliN9__gnu_cxx5__ops14_Iter_less_valEEvT_T0_S5_T1_RT2_>
    2025:	90                   	nop
    2026:	48 8b 45 f8          	mov    -0x8(%rbp),%rax
    202a:	64 48 33 04 25 28 00 	xor    %fs:0x28,%rax
    2031:	00 00 
    2033:	74 05                	je     203a <_ZSt13__adjust_heapIPiliN9__gnu_cxx5__ops15_Iter_less_iterEEvT_T0_S5_T1_T2_+0x1af>
    2035:	e8 e6 f0 ff ff       	callq  1120 <__stack_chk_fail@plt>
    203a:	c9                   	leaveq 
    203b:	c3                   	retq   

000000000000203c <_ZSt4swapIiENSt9enable_ifIXsrSt6__and_IJSt6__not_ISt15__is_tuple_likeIT_EESt21is_move_constructibleIS4_ESt18is_move_assignableIS4_EEE5valueEvE4typeERS4_SE_>:
    203c:	f3 0f 1e fa          	endbr64 
    2040:	55                   	push   %rbp
    2041:	48 89 e5             	mov    %rsp,%rbp
    2044:	48 83 ec 20          	sub    $0x20,%rsp
    2048:	48 89 7d e8          	mov    %rdi,-0x18(%rbp)
    204c:	48 89 75 e0          	mov    %rsi,-0x20(%rbp)
    2050:	64 48 8b 04 25 28 00 	mov    %fs:0x28,%rax
    2057:	00 00 
    2059:	48 89 45 f8          	mov    %rax,-0x8(%rbp)
    205d:	31 c0                	xor    %eax,%eax
    205f:	48 8b 45 e8          	mov    -0x18(%rbp),%rax
    2063:	48 89 c7             	mov    %rax,%rdi
    2066:	e8 e5 fa ff ff       	callq  1b50 <_ZSt4moveIRiEONSt16remove_referenceIT_E4typeEOS2_>
    206b:	8b 00                	mov    (%rax),%eax
    206d:	89 45 f4             	mov    %eax,-0xc(%rbp)
    2070:	48 8b 45 e0          	mov    -0x20(%rbp),%rax
    2074:	48 89 c7             	mov    %rax,%rdi
    2077:	e8 d4 fa ff ff       	callq  1b50 <_ZSt4moveIRiEONSt16remove_referenceIT_E4typeEOS2_>
    207c:	8b 10                	mov    (%rax),%edx
    207e:	48 8b 45 e8          	mov    -0x18(%rbp),%rax
    2082:	89 10                	mov    %edx,(%rax)
    2084:	48 8d 45 f4          	lea    -0xc(%rbp),%rax
    2088:	48 89 c7             	mov    %rax,%rdi
    208b:	e8 c0 fa ff ff       	callq  1b50 <_ZSt4moveIRiEONSt16remove_referenceIT_E4typeEOS2_>
    2090:	8b 10                	mov    (%rax),%edx
    2092:	48 8b 45 e0          	mov    -0x20(%rbp),%rax
    2096:	89 10                	mov    %edx,(%rax)
    2098:	90                   	nop
    2099:	48 8b 45 f8          	mov    -0x8(%rbp),%rax
    209d:	64 48 33 04 25 28 00 	xor    %fs:0x28,%rax
    20a4:	00 00 
    20a6:	74 05                	je     20ad <_ZSt4swapIiENSt9enable_ifIXsrSt6__and_IJSt6__not_ISt15__is_tuple_likeIT_EESt21is_move_constructibleIS4_ESt18is_move_assignableIS4_EEE5valueEvE4typeERS4_SE_+0x71>
    20a8:	e8 73 f0 ff ff       	callq  1120 <__stack_chk_fail@plt>
    20ad:	c9                   	leaveq 
    20ae:	c3                   	retq   

00000000000020af <_ZSt12__niter_baseIPiET_S1_>:
    20af:	f3 0f 1e fa          	endbr64 
    20b3:	55                   	push   %rbp
    20b4:	48 89 e5             	mov    %rsp,%rbp
    20b7:	48 89 7d f8          	mov    %rdi,-0x8(%rbp)
    20bb:	48 8b 45 f8          	mov    -0x8(%rbp),%rax
    20bf:	5d                   	pop    %rbp
    20c0:	c3                   	retq   

00000000000020c1 <_ZSt22__copy_move_backward_aILb1EPiS0_ET1_T0_S2_S1_>:
    20c1:	f3 0f 1e fa          	endbr64 
    20c5:	55                   	push   %rbp
    20c6:	48 89 e5             	mov    %rsp,%rbp
    20c9:	48 83 ec 30          	sub    $0x30,%rsp
    20cd:	48 89 7d e8          	mov    %rdi,-0x18(%rbp)
    20d1:	48 89 75 e0          	mov    %rsi,-0x20(%rbp)
    20d5:	48 89 55 d8          	mov    %rdx,-0x28(%rbp)
    20d9:	c6 45 ff 01          	movb   $0x1,-0x1(%rbp)
    20dd:	48 8b 55 d8          	mov    -0x28(%rbp),%rdx
    20e1:	48 8b 4d e0          	mov    -0x20(%rbp),%rcx
    20e5:	48 8b 45 e8          	mov    -0x18(%rbp),%rax
    20e9:	48 89 ce             	mov    %rcx,%rsi
    20ec:	48 89 c7             	mov    %rax,%rdi
    20ef:	e8 25 01 00 00       	callq  2219 <_ZNSt20__copy_move_backwardILb1ELb1ESt26random_access_iterator_tagE13__copy_move_bIiEEPT_PKS3_S6_S4_>
    20f4:	c9                   	leaveq 
    20f5:	c3                   	retq   

00000000000020f6 <_ZSt12__niter_wrapIPiET_RKS1_S1_>:
    20f6:	f3 0f 1e fa          	endbr64 
    20fa:	55                   	push   %rbp
    20fb:	48 89 e5             	mov    %rsp,%rbp
    20fe:	48 89 7d f8          	mov    %rdi,-0x8(%rbp)
    2102:	48 89 75 f0          	mov    %rsi,-0x10(%rbp)
    2106:	48 8b 45 f0          	mov    -0x10(%rbp),%rax
    210a:	5d                   	pop    %rbp
    210b:	c3                   	retq   

000000000000210c <_ZSt4moveIRN9__gnu_cxx5__ops15_Iter_less_iterEEONSt16remove_referenceIT_E4typeEOS5_>:
    210c:	f3 0f 1e fa          	endbr64 
    2110:	55                   	push   %rbp
    2111:	48 89 e5             	mov    %rsp,%rbp
    2114:	48 89 7d f8          	mov    %rdi,-0x8(%rbp)
    2118:	48 8b 45 f8          	mov    -0x8(%rbp),%rax
    211c:	5d                   	pop    %rbp
    211d:	c3                   	retq   

000000000000211e <_ZSt11__push_heapIPiliN9__gnu_cxx5__ops14_Iter_less_valEEvT_T0_S5_T1_RT2_>:
    211e:	f3 0f 1e fa          	endbr64 
    2122:	55                   	push   %rbp
    2123:	48 89 e5             	mov    %rsp,%rbp
    2126:	48 83 ec 40          	sub    $0x40,%rsp
    212a:	48 89 7d e8          	mov    %rdi,-0x18(%rbp)
    212e:	48 89 75 e0          	mov    %rsi,-0x20(%rbp)
    2132:	48 89 55 d8          	mov    %rdx,-0x28(%rbp)
    2136:	89 4d d4             	mov    %ecx,-0x2c(%rbp)
    2139:	4c 89 45 c8          	mov    %r8,-0x38(%rbp)
    213d:	48 8b 45 e0          	mov    -0x20(%rbp),%rax
    2141:	48 83 e8 01          	sub    $0x1,%rax
    2145:	48 89 c2             	mov    %rax,%rdx
    2148:	48 c1 ea 3f          	shr    $0x3f,%rdx
    214c:	48 01 d0             	add    %rdx,%rax
    214f:	48 d1 f8             	sar    %rax
    2152:	48 89 45 f8          	mov    %rax,-0x8(%rbp)
    2156:	48 8b 45 e0          	mov    -0x20(%rbp),%rax
    215a:	48 3b 45 d8          	cmp    -0x28(%rbp),%rax
    215e:	7e 32                	jle    2192 <_ZSt11__push_heapIPiliN9__gnu_cxx5__ops14_Iter_less_valEEvT_T0_S5_T1_RT2_+0x74>
    2160:	48 8b 45 f8          	mov    -0x8(%rbp),%rax
    2164:	48 8d 14 85 00 00 00 	lea    0x0(,%rax,4),%rdx
    216b:	00 
    216c:	48 8b 45 e8          	mov    -0x18(%rbp),%rax
    2170:	48 8d 0c 02          	lea    (%rdx,%rax,1),%rcx
    2174:	48 8d 55 d4          	lea    -0x2c(%rbp),%rdx
    2178:	48 8b 45 c8          	mov    -0x38(%rbp),%rax
    217c:	48 89 ce             	mov    %rcx,%rsi
    217f:	48 89 c7             	mov    %rax,%rdi
    2182:	e8 09 01 00 00       	callq  2290 <_ZNK9__gnu_cxx5__ops14_Iter_less_valclIPiiEEbT_RT0_>
    2187:	84 c0                	test   %al,%al
    2189:	74 07                	je     2192 <_ZSt11__push_heapIPiliN9__gnu_cxx5__ops14_Iter_less_valEEvT_T0_S5_T1_RT2_+0x74>
    218b:	b8 01 00 00 00       	mov    $0x1,%eax
    2190:	eb 05                	jmp    2197 <_ZSt11__push_heapIPiliN9__gnu_cxx5__ops14_Iter_less_valEEvT_T0_S5_T1_RT2_+0x79>
    2192:	b8 00 00 00 00       	mov    $0x0,%eax
    2197:	84 c0                	test   %al,%al
    2199:	74 58                	je     21f3 <_ZSt11__push_heapIPiliN9__gnu_cxx5__ops14_Iter_less_valEEvT_T0_S5_T1_RT2_+0xd5>
    219b:	48 8b 45 f8          	mov    -0x8(%rbp),%rax
    219f:	48 8d 14 85 00 00 00 	lea    0x0(,%rax,4),%rdx
    21a6:	00 
    21a7:	48 8b 45 e8          	mov    -0x18(%rbp),%rax
    21ab:	48 01 d0             	add    %rdx,%rax
    21ae:	48 89 c7             	mov    %rax,%rdi
    21b1:	e8 9a f9 ff ff       	callq  1b50 <_ZSt4moveIRiEONSt16remove_referenceIT_E4typeEOS2_>
    21b6:	48 8b 55 e0          	mov    -0x20(%rbp),%rdx
    21ba:	48 8d 0c 95 00 00 00 	lea    0x0(,%rdx,4),%rcx
    21c1:	00 
    21c2:	48 8b 55 e8          	mov    -0x18(%rbp),%rdx
    21c6:	48 01 ca             	add    %rcx,%rdx
    21c9:	8b 00                	mov    (%rax),%eax
    21cb:	89 02                	mov    %eax,(%rdx)
    21cd:	48 8b 45 f8          	mov    -0x8(%rbp),%rax
    21d1:	48 89 45 e0          	mov    %rax,-0x20(%rbp)
    21d5:	48 8b 45 e0          	mov    -0x20(%rbp),%rax
    21d9:	48 83 e8 01          	sub    $0x1,%rax
    21dd:	48 89 c2             	mov    %rax,%rdx
    21e0:	48 c1 ea 3f          	shr    $0x3f,%rdx
    21e4:	48 01 d0             	add    %rdx,%rax
    21e7:	48 d1 f8             	sar    %rax
    21ea:	48 89 45 f8          	mov    %rax,-0x8(%rbp)
    21ee:	e9 63 ff ff ff       	jmpq   2156 <_ZSt11__push_heapIPiliN9__gnu_cxx5__ops14_Iter_less_valEEvT_T0_S5_T1_RT2_+0x38>
    21f3:	48 8d 45 d4          	lea    -0x2c(%rbp),%rax
    21f7:	48 89 c7             	mov    %rax,%rdi
    21fa:	e8 51 f9 ff ff       	callq  1b50 <_ZSt4moveIRiEONSt16remove_referenceIT_E4typeEOS2_>
    21ff:	48 8b 55 e0          	mov    -0x20(%rbp),%rdx
    2203:	48 8d 0c 95 00 00 00 	lea    0x0(,%rdx,4),%rcx
    220a:	00 
    220b:	48 8b 55 e8          	mov    -0x18(%rbp),%rdx
    220f:	48 01 ca             	add    %rcx,%rdx
    2212:	8b 00                	mov    (%rax),%eax
    2214:	89 02                	mov    %eax,(%rdx)
    2216:	90                   	nop
    2217:	c9                   	leaveq 
    2218:	c3                   	retq   

0000000000002219 <_ZNSt20__copy_move_backwardILb1ELb1ESt26random_access_iterator_tagE13__copy_move_bIiEEPT_PKS3_S6_S4_>:
    2219:	f3 0f 1e fa          	endbr64 
    221d:	55                   	push   %rbp
    221e:	48 89 e5             	mov    %rsp,%rbp
    2221:	48 83 ec 30          	sub    $0x30,%rsp
    2225:	48 89 7d e8          	mov    %rdi,-0x18(%rbp)
    2229:	48 89 75 e0          	mov    %rsi,-0x20(%rbp)
    222d:	48 89 55 d8          	mov    %rdx,-0x28(%rbp)
    2231:	48 8b 45 e0          	mov    -0x20(%rbp),%rax
    2235:	48 2b 45 e8          	sub    -0x18(%rbp),%rax
    2239:	48 c1 f8 02          	sar    $0x2,%rax
    223d:	48 89 45 f8          	mov    %rax,-0x8(%rbp)
    2241:	48 83 7d f8 00       	cmpq   $0x0,-0x8(%rbp)
    2246:	74 30                	je     2278 <_ZNSt20__copy_move_backwardILb1ELb1ESt26random_access_iterator_tagE13__copy_move_bIiEEPT_PKS3_S6_S4_+0x5f>
    2248:	48 8b 45 f8          	mov    -0x8(%rbp),%rax
    224c:	48 8d 14 85 00 00 00 	lea    0x0(,%rax,4),%rdx
    2253:	00 
    2254:	48 8b 45 f8          	mov    -0x8(%rbp),%rax
    2258:	48 c1 e0 02          	shl    $0x2,%rax
    225c:	48 f7 d8             	neg    %rax
    225f:	48 89 c1             	mov    %rax,%rcx
    2262:	48 8b 45 d8          	mov    -0x28(%rbp),%rax
    2266:	48 01 c1             	add    %rax,%rcx
    2269:	48 8b 45 e8          	mov    -0x18(%rbp),%rax
    226d:	48 89 c6             	mov    %rax,%rsi
    2270:	48 89 cf             	mov    %rcx,%rdi
    2273:	e8 d8 ee ff ff       	callq  1150 <memmove@plt>
    2278:	48 8b 45 f8          	mov    -0x8(%rbp),%rax
    227c:	48 c1 e0 02          	shl    $0x2,%rax
    2280:	48 f7 d8             	neg    %rax
    2283:	48 89 c2             	mov    %rax,%rdx
    2286:	48 8b 45 d8          	mov    -0x28(%rbp),%rax
    228a:	48 01 d0             	add    %rdx,%rax
    228d:	c9                   	leaveq 
    228e:	c3                   	retq   
    228f:	90                   	nop

0000000000002290 <_ZNK9__gnu_cxx5__ops14_Iter_less_valclIPiiEEbT_RT0_>:
    2290:	f3 0f 1e fa          	endbr64 
    2294:	55                   	push   %rbp
    2295:	48 89 e5             	mov    %rsp,%rbp
    2298:	48 89 7d f8          	mov    %rdi,-0x8(%rbp)
    229c:	48 89 75 f0          	mov    %rsi,-0x10(%rbp)
    22a0:	48 89 55 e8          	mov    %rdx,-0x18(%rbp)
    22a4:	48 8b 45 f0          	mov    -0x10(%rbp),%rax
    22a8:	8b 10                	mov    (%rax),%edx
    22aa:	48 8b 45 e8          	mov    -0x18(%rbp),%rax
    22ae:	8b 00                	mov    (%rax),%eax
    22b0:	39 c2                	cmp    %eax,%edx
    22b2:	0f 9c c0             	setl   %al
    22b5:	5d                   	pop    %rbp
    22b6:	c3                   	retq   

00000000000022b7 <calculate_sum>:
    22b7:	f3 0f 1e fa          	endbr64 
    22bb:	55                   	push   %rbp
    22bc:	48 89 e5             	mov    %rsp,%rbp
    22bf:	48 89 7d e8          	mov    %rdi,-0x18(%rbp)
    22c3:	89 75 e4             	mov    %esi,-0x1c(%rbp)
    22c6:	89 55 e0             	mov    %edx,-0x20(%rbp)
    22c9:	48 c7 45 f8 00 00 00 	movq   $0x0,-0x8(%rbp)
    22d0:	00 
    22d1:	c7 45 f4 00 00 00 00 	movl   $0x0,-0xc(%rbp)
    22d8:	eb 22                	jmp    22fc <calculate_sum+0x45>
    22da:	8b 45 f4             	mov    -0xc(%rbp),%eax
    22dd:	48 8d 14 85 00 00 00 	lea    0x0(,%rax,4),%rdx
    22e4:	00 
    22e5:	48 8b 45 e8          	mov    -0x18(%rbp),%rax
    22e9:	48 01 d0             	add    %rdx,%rax
    22ec:	8b 00                	mov    (%rax),%eax
    22ee:	39 45 e0             	cmp    %eax,-0x20(%rbp)
    22f1:	7f 05                	jg     22f8 <calculate_sum+0x41>
    22f3:	48 83 45 f8 01       	addq   $0x1,-0x8(%rbp)
    22f8:	83 45 f4 01          	addl   $0x1,-0xc(%rbp)
    22fc:	8b 45 f4             	mov    -0xc(%rbp),%eax
    22ff:	3b 45 e4             	cmp    -0x1c(%rbp),%eax
    2302:	72 d6                	jb     22da <calculate_sum+0x23>
    2304:	48 8b 45 f8          	mov    -0x8(%rbp),%rax
    2308:	5d                   	pop    %rbp
    2309:	c3                   	retq   
    230a:	66 0f 1f 44 00 00    	nopw   0x0(%rax,%rax,1)

0000000000002310 <__libc_csu_init>:
    2310:	f3 0f 1e fa          	endbr64 
    2314:	41 57                	push   %r15
    2316:	4c 8d 3d 33 2a 00 00 	lea    0x2a33(%rip),%r15        # 4d50 <__frame_dummy_init_array_entry>
    231d:	41 56                	push   %r14
    231f:	49 89 d6             	mov    %rdx,%r14
    2322:	41 55                	push   %r13
    2324:	49 89 f5             	mov    %rsi,%r13
    2327:	41 54                	push   %r12
    2329:	41 89 fc             	mov    %edi,%r12d
    232c:	55                   	push   %rbp
    232d:	48 8d 2d 2c 2a 00 00 	lea    0x2a2c(%rip),%rbp        # 4d60 <__do_global_dtors_aux_fini_array_entry>
    2334:	53                   	push   %rbx
    2335:	4c 29 fd             	sub    %r15,%rbp
    2338:	48 83 ec 08          	sub    $0x8,%rsp
    233c:	e8 bf ec ff ff       	callq  1000 <_init>
    2341:	48 c1 fd 03          	sar    $0x3,%rbp
    2345:	74 1f                	je     2366 <__libc_csu_init+0x56>
    2347:	31 db                	xor    %ebx,%ebx
    2349:	0f 1f 80 00 00 00 00 	nopl   0x0(%rax)
    2350:	4c 89 f2             	mov    %r14,%rdx
    2353:	4c 89 ee             	mov    %r13,%rsi
    2356:	44 89 e7             	mov    %r12d,%edi
    2359:	41 ff 14 df          	callq  *(%r15,%rbx,8)
    235d:	48 83 c3 01          	add    $0x1,%rbx
    2361:	48 39 dd             	cmp    %rbx,%rbp
    2364:	75 ea                	jne    2350 <__libc_csu_init+0x40>
    2366:	48 83 c4 08          	add    $0x8,%rsp
    236a:	5b                   	pop    %rbx
    236b:	5d                   	pop    %rbp
    236c:	41 5c                	pop    %r12
    236e:	41 5d                	pop    %r13
    2370:	41 5e                	pop    %r14
    2372:	41 5f                	pop    %r15
    2374:	c3                   	retq   
    2375:	66 66 2e 0f 1f 84 00 	data16 nopw %cs:0x0(%rax,%rax,1)
    237c:	00 00 00 00 

0000000000002380 <__libc_csu_fini>:
    2380:	f3 0f 1e fa          	endbr64 
    2384:	c3                   	retq   

Disassembly of section .fini:

0000000000002388 <_fini>:
    2388:	f3 0f 1e fa          	endbr64 
    238c:	48 83 ec 08          	sub    $0x8,%rsp
    2390:	48 83 c4 08          	add    $0x8,%rsp
    2394:	c3                   	retq   
